
exectry.elf:     file format elf32-avr

Sections:
Idx Name          Size      VMA       LMA       File off  Algn
  0 .data         00000144  00800100  00000f7a  0000100e  2**0
                  CONTENTS, ALLOC, LOAD, DATA
  1 .text         00000f7a  00000000  00000000  00000094  2**1
                  CONTENTS, ALLOC, LOAD, READONLY, CODE
  2 .bss          00000001  00800244  00800244  00001152  2**0
                  ALLOC
  3 .comment      0000005c  00000000  00000000  00001152  2**0
                  CONTENTS, READONLY
  4 .note.gnu.avr.deviceinfo 0000003c  00000000  00000000  000011b0  2**2
                  CONTENTS, READONLY
  5 .debug_aranges 00000100  00000000  00000000  000011ec  2**0
                  CONTENTS, READONLY, DEBUGGING
  6 .debug_info   00001bf5  00000000  00000000  000012ec  2**0
                  CONTENTS, READONLY, DEBUGGING
  7 .debug_abbrev 00000c77  00000000  00000000  00002ee1  2**0
                  CONTENTS, READONLY, DEBUGGING
  8 .debug_line   00000ad6  00000000  00000000  00003b58  2**0
                  CONTENTS, READONLY, DEBUGGING
  9 .debug_frame  00000260  00000000  00000000  00004630  2**2
                  CONTENTS, READONLY, DEBUGGING
 10 .debug_str    000006c9  00000000  00000000  00004890  2**0
                  CONTENTS, READONLY, DEBUGGING
 11 .debug_loc    00000da5  00000000  00000000  00004f59  2**0
                  CONTENTS, READONLY, DEBUGGING
 12 .debug_ranges 000000f0  00000000  00000000  00005cfe  2**0
                  CONTENTS, READONLY, DEBUGGING

Disassembly of section .text:

00000000 <__vectors>:
   0:	0c 94 46 00 	jmp	0x8c	; 0x8c <__ctors_end>
   4:	0c 94 63 00 	jmp	0xc6	; 0xc6 <__bad_interrupt>
   8:	0c 94 63 00 	jmp	0xc6	; 0xc6 <__bad_interrupt>
   c:	0c 94 63 00 	jmp	0xc6	; 0xc6 <__bad_interrupt>
  10:	0c 94 63 00 	jmp	0xc6	; 0xc6 <__bad_interrupt>
  14:	0c 94 63 00 	jmp	0xc6	; 0xc6 <__bad_interrupt>
  18:	0c 94 63 00 	jmp	0xc6	; 0xc6 <__bad_interrupt>
  1c:	0c 94 63 00 	jmp	0xc6	; 0xc6 <__bad_interrupt>
  20:	0c 94 63 00 	jmp	0xc6	; 0xc6 <__bad_interrupt>
  24:	0c 94 63 00 	jmp	0xc6	; 0xc6 <__bad_interrupt>
  28:	0c 94 63 00 	jmp	0xc6	; 0xc6 <__bad_interrupt>
  2c:	0c 94 63 00 	jmp	0xc6	; 0xc6 <__bad_interrupt>
  30:	0c 94 63 00 	jmp	0xc6	; 0xc6 <__bad_interrupt>
  34:	0c 94 63 00 	jmp	0xc6	; 0xc6 <__bad_interrupt>
  38:	0c 94 63 00 	jmp	0xc6	; 0xc6 <__bad_interrupt>
  3c:	0c 94 63 00 	jmp	0xc6	; 0xc6 <__bad_interrupt>
  40:	0c 94 63 00 	jmp	0xc6	; 0xc6 <__bad_interrupt>
  44:	0c 94 63 00 	jmp	0xc6	; 0xc6 <__bad_interrupt>
  48:	0c 94 63 00 	jmp	0xc6	; 0xc6 <__bad_interrupt>
  4c:	0c 94 63 00 	jmp	0xc6	; 0xc6 <__bad_interrupt>
  50:	0c 94 63 00 	jmp	0xc6	; 0xc6 <__bad_interrupt>
  54:	0c 94 63 00 	jmp	0xc6	; 0xc6 <__bad_interrupt>
  58:	0c 94 63 00 	jmp	0xc6	; 0xc6 <__bad_interrupt>
  5c:	0c 94 63 00 	jmp	0xc6	; 0xc6 <__bad_interrupt>
  60:	0c 94 63 00 	jmp	0xc6	; 0xc6 <__bad_interrupt>
  64:	0c 94 63 00 	jmp	0xc6	; 0xc6 <__bad_interrupt>
  68:	0c 94 63 00 	jmp	0xc6	; 0xc6 <__bad_interrupt>
  6c:	0c 94 63 00 	jmp	0xc6	; 0xc6 <__bad_interrupt>
  70:	0c 94 63 00 	jmp	0xc6	; 0xc6 <__bad_interrupt>
  74:	0c 94 63 00 	jmp	0xc6	; 0xc6 <__bad_interrupt>
  78:	0c 94 63 00 	jmp	0xc6	; 0xc6 <__bad_interrupt>
  7c:	0c 94 63 00 	jmp	0xc6	; 0xc6 <__bad_interrupt>
  80:	0c 94 63 00 	jmp	0xc6	; 0xc6 <__bad_interrupt>
  84:	0c 94 63 00 	jmp	0xc6	; 0xc6 <__bad_interrupt>
  88:	0c 94 63 00 	jmp	0xc6	; 0xc6 <__bad_interrupt>

0000008c <__ctors_end>:
  8c:	11 24       	eor	r1, r1
  8e:	1f be       	out	0x3f, r1	; 63
  90:	cf ef       	ldi	r28, 0xFF	; 255
  92:	d0 e1       	ldi	r29, 0x10	; 16
  94:	de bf       	out	0x3e, r29	; 62
  96:	cd bf       	out	0x3d, r28	; 61

00000098 <__do_copy_data>:
  98:	12 e0       	ldi	r17, 0x02	; 2
  9a:	a0 e0       	ldi	r26, 0x00	; 0
  9c:	b1 e0       	ldi	r27, 0x01	; 1
  9e:	ea e7       	ldi	r30, 0x7A	; 122
  a0:	ff e0       	ldi	r31, 0x0F	; 15
  a2:	02 c0       	rjmp	.+4      	; 0xa8 <__do_copy_data+0x10>
  a4:	05 90       	lpm	r0, Z+
  a6:	0d 92       	st	X+, r0
  a8:	a4 34       	cpi	r26, 0x44	; 68
  aa:	b1 07       	cpc	r27, r17
  ac:	d9 f7       	brne	.-10     	; 0xa4 <__do_copy_data+0xc>

000000ae <__do_clear_bss>:
  ae:	22 e0       	ldi	r18, 0x02	; 2
  b0:	a4 e4       	ldi	r26, 0x44	; 68
  b2:	b2 e0       	ldi	r27, 0x02	; 2
  b4:	01 c0       	rjmp	.+2      	; 0xb8 <.do_clear_bss_start>

000000b6 <.do_clear_bss_loop>:
  b6:	1d 92       	st	X+, r1

000000b8 <.do_clear_bss_start>:
  b8:	a5 34       	cpi	r26, 0x45	; 69
  ba:	b2 07       	cpc	r27, r18
  bc:	e1 f7       	brne	.-8      	; 0xb6 <.do_clear_bss_loop>
  be:	0e 94 fd 03 	call	0x7fa	; 0x7fa <main>
  c2:	0c 94 bb 07 	jmp	0xf76	; 0xf76 <_exit>

000000c6 <__bad_interrupt>:
  c6:	0c 94 00 00 	jmp	0	; 0x0 <__vectors>

000000ca <_setDataDirection>:
	//TODO
	return 0;
}

void wait4BF()
{
  ca:	89 2b       	or	r24, r25
  cc:	21 f0       	breq	.+8      	; 0xd6 <_setDataDirection+0xc>
  ce:	82 b1       	in	r24, 0x02	; 2
  d0:	8f 70       	andi	r24, 0x0F	; 15
  d2:	82 b9       	out	0x02, r24	; 2
  d4:	08 95       	ret
  d6:	82 b1       	in	r24, 0x02	; 2
  d8:	80 6f       	ori	r24, 0xF0	; 240
  da:	82 b9       	out	0x02, r24	; 2
  dc:	08 95       	ret

000000de <_writeRegister>:
  de:	0f 93       	push	r16
  e0:	1f 93       	push	r17
  e2:	cf 93       	push	r28
  e4:	8c 01       	movw	r16, r24
  e6:	c6 2f       	mov	r28, r22
  e8:	80 e0       	ldi	r24, 0x00	; 0
  ea:	90 e0       	ldi	r25, 0x00	; 0
  ec:	0e 94 65 00 	call	0xca	; 0xca <_setDataDirection>
  f0:	01 2b       	or	r16, r17
  f2:	29 f0       	breq	.+10     	; 0xfe <_writeRegister+0x20>
  f4:	e2 e6       	ldi	r30, 0x62	; 98
  f6:	f0 e0       	ldi	r31, 0x00	; 0
  f8:	80 81       	ld	r24, Z
  fa:	82 60       	ori	r24, 0x02	; 2
  fc:	80 83       	st	Z, r24
  fe:	e2 e6       	ldi	r30, 0x62	; 98
 100:	f0 e0       	ldi	r31, 0x00	; 0
 102:	80 81       	ld	r24, Z
 104:	8b 7f       	andi	r24, 0xFB	; 251
 106:	80 83       	st	Z, r24
 108:	8f ec       	ldi	r24, 0xCF	; 207
 10a:	97 e0       	ldi	r25, 0x07	; 7
 10c:	01 97       	sbiw	r24, 0x01	; 1
 10e:	f1 f7       	brne	.-4      	; 0x10c <_writeRegister+0x2e>
 110:	00 c0       	rjmp	.+0      	; 0x112 <_writeRegister+0x34>
 112:	00 00       	nop
 114:	80 81       	ld	r24, Z
 116:	88 60       	ori	r24, 0x08	; 8
 118:	80 83       	st	Z, r24
 11a:	8f ec       	ldi	r24, 0xCF	; 207
 11c:	97 e0       	ldi	r25, 0x07	; 7
 11e:	01 97       	sbiw	r24, 0x01	; 1
 120:	f1 f7       	brne	.-4      	; 0x11e <_writeRegister+0x40>
 122:	00 c0       	rjmp	.+0      	; 0x124 <_writeRegister+0x46>
 124:	00 00       	nop
 126:	83 b1       	in	r24, 0x03	; 3
 128:	90 e1       	ldi	r25, 0x10	; 16
 12a:	c9 9f       	mul	r28, r25
 12c:	b0 01       	movw	r22, r0
 12e:	11 24       	eor	r1, r1
 130:	68 2b       	or	r22, r24
 132:	63 b9       	out	0x03, r22	; 3
 134:	8f ec       	ldi	r24, 0xCF	; 207
 136:	97 e0       	ldi	r25, 0x07	; 7
 138:	01 97       	sbiw	r24, 0x01	; 1
 13a:	f1 f7       	brne	.-4      	; 0x138 <_writeRegister+0x5a>
 13c:	00 c0       	rjmp	.+0      	; 0x13e <_writeRegister+0x60>
 13e:	00 00       	nop
 140:	80 81       	ld	r24, Z
 142:	81 7f       	andi	r24, 0xF1	; 241
 144:	80 83       	st	Z, r24
 146:	8f ec       	ldi	r24, 0xCF	; 207
 148:	97 e0       	ldi	r25, 0x07	; 7
 14a:	01 97       	sbiw	r24, 0x01	; 1
 14c:	f1 f7       	brne	.-4      	; 0x14a <_writeRegister+0x6c>
 14e:	00 c0       	rjmp	.+0      	; 0x150 <_writeRegister+0x72>
 150:	00 00       	nop
 152:	83 b1       	in	r24, 0x03	; 3
 154:	8f 70       	andi	r24, 0x0F	; 15
 156:	83 b9       	out	0x03, r24	; 3
 158:	8f ec       	ldi	r24, 0xCF	; 207
 15a:	97 e0       	ldi	r25, 0x07	; 7
 15c:	01 97       	sbiw	r24, 0x01	; 1
 15e:	f1 f7       	brne	.-4      	; 0x15c <_writeRegister+0x7e>
 160:	00 c0       	rjmp	.+0      	; 0x162 <_writeRegister+0x84>
 162:	00 00       	nop
 164:	cf 91       	pop	r28
 166:	1f 91       	pop	r17
 168:	0f 91       	pop	r16
 16a:	08 95       	ret

0000016c <lcdSendCmd>:
	//TODO
}

void lcdSendCmd(uint8_t cmd)
{
 16c:	cf 93       	push	r28
 16e:	c8 2f       	mov	r28, r24
	_writeRegister(LCD_CTRL_REGISTER, (cmd & 0xf0) >> 4);
 170:	68 2f       	mov	r22, r24
 172:	62 95       	swap	r22
 174:	6f 70       	andi	r22, 0x0F	; 15
 176:	80 e0       	ldi	r24, 0x00	; 0
 178:	90 e0       	ldi	r25, 0x00	; 0
 17a:	0e 94 6f 00 	call	0xde	; 0xde <_writeRegister>
	_writeRegister(LCD_CTRL_REGISTER, cmd & 0x0f);
 17e:	6c 2f       	mov	r22, r28
 180:	6f 70       	andi	r22, 0x0F	; 15
 182:	80 e0       	ldi	r24, 0x00	; 0
 184:	90 e0       	ldi	r25, 0x00	; 0
 186:	0e 94 6f 00 	call	0xde	; 0xde <_writeRegister>
	#else
		//round up by default
		__ticks_dc = (uint32_t)(ceil(fabs(__tmp)));
	#endif

	__builtin_avr_delay_cycles(__ticks_dc);
 18a:	8f ec       	ldi	r24, 0xCF	; 207
 18c:	97 e0       	ldi	r25, 0x07	; 7
 18e:	01 97       	sbiw	r24, 0x01	; 1
 190:	f1 f7       	brne	.-4      	; 0x18e <lcdSendCmd+0x22>
 192:	00 c0       	rjmp	.+0      	; 0x194 <lcdSendCmd+0x28>
 194:	00 00       	nop
	_delay_ms(1);
}
 196:	cf 91       	pop	r28
 198:	08 95       	ret

0000019a <lcdSendByte>:

void lcdSendByte(uint8_t data)
{
 19a:	cf 93       	push	r28
 19c:	c8 2f       	mov	r28, r24
	_writeRegister(LCD_DATA_REGISTER, (data & 0xf0) >> 4);
 19e:	68 2f       	mov	r22, r24
 1a0:	62 95       	swap	r22
 1a2:	6f 70       	andi	r22, 0x0F	; 15
 1a4:	81 e0       	ldi	r24, 0x01	; 1
 1a6:	90 e0       	ldi	r25, 0x00	; 0
 1a8:	0e 94 6f 00 	call	0xde	; 0xde <_writeRegister>
	_writeRegister(LCD_DATA_REGISTER, data & 0x0f);
 1ac:	6c 2f       	mov	r22, r28
 1ae:	6f 70       	andi	r22, 0x0F	; 15
 1b0:	81 e0       	ldi	r24, 0x01	; 1
 1b2:	90 e0       	ldi	r25, 0x00	; 0
 1b4:	0e 94 6f 00 	call	0xde	; 0xde <_writeRegister>
 1b8:	8f ec       	ldi	r24, 0xCF	; 207
 1ba:	97 e0       	ldi	r25, 0x07	; 7
 1bc:	01 97       	sbiw	r24, 0x01	; 1
 1be:	f1 f7       	brne	.-4      	; 0x1bc <lcdSendByte+0x22>
 1c0:	00 c0       	rjmp	.+0      	; 0x1c2 <lcdSendByte+0x28>
 1c2:	00 00       	nop
	_delay_ms(1);
}
 1c4:	cf 91       	pop	r28
 1c6:	08 95       	ret

000001c8 <lcdCreateChar>:
	lcdPrintHun("     T-Bird     ", "    firmware    ", "  verzió v1.0", ">> Betöltés...");
	_delay_ms(200);
}

void lcdCreateChar(uint8_t location, char charmap[])
{
 1c8:	0f 93       	push	r16
 1ca:	1f 93       	push	r17
 1cc:	cf 93       	push	r28
 1ce:	df 93       	push	r29
 1d0:	8b 01       	movw	r16, r22
	lcdSendCmd(LCD_CMD_CGRAMAD | (location << 3));
 1d2:	90 e0       	ldi	r25, 0x00	; 0
 1d4:	88 0f       	add	r24, r24
 1d6:	99 1f       	adc	r25, r25
 1d8:	88 0f       	add	r24, r24
 1da:	99 1f       	adc	r25, r25
 1dc:	88 0f       	add	r24, r24
 1de:	99 1f       	adc	r25, r25
 1e0:	80 64       	ori	r24, 0x40	; 64
 1e2:	0e 94 b6 00 	call	0x16c	; 0x16c <lcdSendCmd>
	for (int i = 0; i < 8; i++)
 1e6:	c0 e0       	ldi	r28, 0x00	; 0
 1e8:	d0 e0       	ldi	r29, 0x00	; 0
 1ea:	07 c0       	rjmp	.+14     	; 0x1fa <lcdCreateChar+0x32>
		lcdSendByte(charmap[i]);
 1ec:	f8 01       	movw	r30, r16
 1ee:	ec 0f       	add	r30, r28
 1f0:	fd 1f       	adc	r31, r29
 1f2:	80 81       	ld	r24, Z
 1f4:	0e 94 cd 00 	call	0x19a	; 0x19a <lcdSendByte>
}

void lcdCreateChar(uint8_t location, char charmap[])
{
	lcdSendCmd(LCD_CMD_CGRAMAD | (location << 3));
	for (int i = 0; i < 8; i++)
 1f8:	21 96       	adiw	r28, 0x01	; 1
 1fa:	c8 30       	cpi	r28, 0x08	; 8
 1fc:	d1 05       	cpc	r29, r1
 1fe:	b4 f3       	brlt	.-20     	; 0x1ec <lcdCreateChar+0x24>
		lcdSendByte(charmap[i]);
}
 200:	df 91       	pop	r29
 202:	cf 91       	pop	r28
 204:	1f 91       	pop	r17
 206:	0f 91       	pop	r16
 208:	08 95       	ret

0000020a <lcdPrint>:

void lcdPrint(const char* str, int row)
{
 20a:	0f 93       	push	r16
 20c:	1f 93       	push	r17
 20e:	cf 93       	push	r28
 210:	df 93       	push	r29
 212:	8c 01       	movw	r16, r24
 214:	eb 01       	movw	r28, r22
	lcdSendCmd(LCD_CMD_RETHOME);
 216:	82 e0       	ldi	r24, 0x02	; 2
 218:	0e 94 b6 00 	call	0x16c	; 0x16c <lcdSendCmd>
	switch (row)
 21c:	c1 30       	cpi	r28, 0x01	; 1
 21e:	d1 05       	cpc	r29, r1
 220:	71 f0       	breq	.+28     	; 0x23e <lcdPrint+0x34>
 222:	1c f4       	brge	.+6      	; 0x22a <lcdPrint+0x20>
 224:	cd 2b       	or	r28, r29
 226:	39 f0       	breq	.+14     	; 0x236 <lcdPrint+0x2c>
 228:	0d c0       	rjmp	.+26     	; 0x244 <lcdPrint+0x3a>
 22a:	c2 30       	cpi	r28, 0x02	; 2
 22c:	d1 05       	cpc	r29, r1
 22e:	69 f0       	breq	.+26     	; 0x24a <lcdPrint+0x40>
 230:	23 97       	sbiw	r28, 0x03	; 3
 232:	79 f0       	breq	.+30     	; 0x252 <lcdPrint+0x48>
 234:	07 c0       	rjmp	.+14     	; 0x244 <lcdPrint+0x3a>
	{
		case 0:	lcdSendCmd(LCD_CMD_DDRAMAD + 0x00); break;
 236:	80 e8       	ldi	r24, 0x80	; 128
 238:	0e 94 b6 00 	call	0x16c	; 0x16c <lcdSendCmd>
 23c:	03 c0       	rjmp	.+6      	; 0x244 <lcdPrint+0x3a>
		case 1:	lcdSendCmd(LCD_CMD_DDRAMAD + 0x28); break;
 23e:	88 ea       	ldi	r24, 0xA8	; 168
 240:	0e 94 b6 00 	call	0x16c	; 0x16c <lcdSendCmd>
	for (int i = 0; i < 8; i++)
		lcdSendByte(charmap[i]);
}

void lcdPrint(const char* str, int row)
{
 244:	c0 e0       	ldi	r28, 0x00	; 0
 246:	d0 e0       	ldi	r29, 0x00	; 0
 248:	0d c0       	rjmp	.+26     	; 0x264 <lcdPrint+0x5a>
	lcdSendCmd(LCD_CMD_RETHOME);
	switch (row)
	{
		case 0:	lcdSendCmd(LCD_CMD_DDRAMAD + 0x00); break;
		case 1:	lcdSendCmd(LCD_CMD_DDRAMAD + 0x28); break;
		case 2:	lcdSendCmd(LCD_CMD_DDRAMAD + 0x10); break;
 24a:	80 e9       	ldi	r24, 0x90	; 144
 24c:	0e 94 b6 00 	call	0x16c	; 0x16c <lcdSendCmd>
 250:	f9 cf       	rjmp	.-14     	; 0x244 <lcdPrint+0x3a>
		case 3:	lcdSendCmd(LCD_CMD_DDRAMAD + 0x50); break;
 252:	80 ed       	ldi	r24, 0xD0	; 208
 254:	0e 94 b6 00 	call	0x16c	; 0x16c <lcdSendCmd>
 258:	f5 cf       	rjmp	.-22     	; 0x244 <lcdPrint+0x3a>
	}

	int i = 0;
	while (i < 16 && *str)
	{
		lcdSendByte(*str);
 25a:	0e 94 cd 00 	call	0x19a	; 0x19a <lcdSendByte>
		str++;
 25e:	0f 5f       	subi	r16, 0xFF	; 255
 260:	1f 4f       	sbci	r17, 0xFF	; 255
		i++;
 262:	21 96       	adiw	r28, 0x01	; 1
		case 2:	lcdSendCmd(LCD_CMD_DDRAMAD + 0x10); break;
		case 3:	lcdSendCmd(LCD_CMD_DDRAMAD + 0x50); break;
	}

	int i = 0;
	while (i < 16 && *str)
 264:	c0 31       	cpi	r28, 0x10	; 16
 266:	d1 05       	cpc	r29, r1
 268:	24 f4       	brge	.+8      	; 0x272 <lcdPrint+0x68>
 26a:	f8 01       	movw	r30, r16
 26c:	80 81       	ld	r24, Z
 26e:	81 11       	cpse	r24, r1
 270:	f4 cf       	rjmp	.-24     	; 0x25a <lcdPrint+0x50>
		lcdSendByte(*str);
		str++;
		i++;
		//_delay_ms(35);
	}
}
 272:	df 91       	pop	r29
 274:	cf 91       	pop	r28
 276:	1f 91       	pop	r17
 278:	0f 91       	pop	r16
 27a:	08 95       	ret

0000027c <lcdPrintHun>:

int lcdPrintHun(const char* line0, const char* line1, const char* line2, const char* line3)
{
 27c:	6f 92       	push	r6
 27e:	7f 92       	push	r7
 280:	8f 92       	push	r8
 282:	9f 92       	push	r9
 284:	af 92       	push	r10
 286:	bf 92       	push	r11
 288:	cf 92       	push	r12
 28a:	df 92       	push	r13
 28c:	ef 92       	push	r14
 28e:	ff 92       	push	r15
 290:	0f 93       	push	r16
 292:	1f 93       	push	r17
 294:	cf 93       	push	r28
 296:	df 93       	push	r29
 298:	cd b7       	in	r28, 0x3d	; 61
 29a:	de b7       	in	r29, 0x3e	; 62
 29c:	c6 5b       	subi	r28, 0xB6	; 182
 29e:	d1 09       	sbc	r29, r1
 2a0:	0f b6       	in	r0, 0x3f	; 63
 2a2:	f8 94       	cli
 2a4:	de bf       	out	0x3e, r29	; 62
 2a6:	0f be       	out	0x3f, r0	; 63
 2a8:	cd bf       	out	0x3d, r28	; 61
 2aa:	18 2f       	mov	r17, r24
 2ac:	09 2f       	mov	r16, r25
 2ae:	76 2e       	mov	r7, r22
 2b0:	67 2e       	mov	r6, r23
 2b2:	94 2e       	mov	r9, r20
 2b4:	85 2e       	mov	r8, r21
 2b6:	b2 2e       	mov	r11, r18
 2b8:	a3 2e       	mov	r10, r19
	char hunLetters[19] = {
 2ba:	83 e1       	ldi	r24, 0x13	; 19
 2bc:	ea e7       	ldi	r30, 0x7A	; 122
 2be:	f1 e0       	ldi	r31, 0x01	; 1
 2c0:	de 01       	movw	r26, r28
 2c2:	11 96       	adiw	r26, 0x01	; 1
 2c4:	01 90       	ld	r0, Z+
 2c6:	0d 92       	st	X+, r0
 2c8:	8a 95       	dec	r24
 2ca:	e1 f7       	brne	.-8      	; 0x2c4 <lcdPrintHun+0x48>
		0xe1, 0xe9, 0xed,	//á, é, í,
		0xf3, 0xf5, 0xf6,	//ó, õ, ö,
		0xfa, 0xfb, 0xfc,   //ú, û, ü
		0x00};
	
	char* replacement[19] = {
 2cc:	86 e2       	ldi	r24, 0x26	; 38
 2ce:	ed e8       	ldi	r30, 0x8D	; 141
 2d0:	f1 e0       	ldi	r31, 0x01	; 1
 2d2:	de 01       	movw	r26, r28
 2d4:	54 96       	adiw	r26, 0x14	; 20
 2d6:	01 90       	ld	r0, Z+
 2d8:	0d 92       	st	X+, r0
 2da:	8a 95       	dec	r24
 2dc:	e1 f7       	brne	.-8      	; 0x2d6 <lcdPrintHun+0x5a>
		lowerAA, lowerEE, lowerII,
		lowerOO, lowerDO,    NULL,
		lowerUU, lowerDU,    NULL,
	0x00};
	
	int len[5] = {
 2de:	1b ae       	std	Y+59, r1	; 0x3b
 2e0:	1a ae       	std	Y+58, r1	; 0x3a
		0,
		strlen(line0),
 2e2:	a1 2f       	mov	r26, r17
 2e4:	b9 2f       	mov	r27, r25
 2e6:	fd 01       	movw	r30, r26
 2e8:	01 90       	ld	r0, Z+
 2ea:	00 20       	and	r0, r0
 2ec:	e9 f7       	brne	.-6      	; 0x2e8 <lcdPrintHun+0x6c>
 2ee:	31 97       	sbiw	r30, 0x01	; 1
 2f0:	ea 1b       	sub	r30, r26
 2f2:	fb 0b       	sbc	r31, r27
		lowerAA, lowerEE, lowerII,
		lowerOO, lowerDO,    NULL,
		lowerUU, lowerDU,    NULL,
	0x00};
	
	int len[5] = {
 2f4:	fd af       	std	Y+61, r31	; 0x3d
 2f6:	ec af       	std	Y+60, r30	; 0x3c
		0,
		strlen(line0),
		strlen(line1),
 2f8:	a6 2f       	mov	r26, r22
 2fa:	b7 2f       	mov	r27, r23
 2fc:	fd 01       	movw	r30, r26
 2fe:	01 90       	ld	r0, Z+
 300:	00 20       	and	r0, r0
 302:	e9 f7       	brne	.-6      	; 0x2fe <lcdPrintHun+0x82>
 304:	31 97       	sbiw	r30, 0x01	; 1
 306:	ea 1b       	sub	r30, r26
 308:	fb 0b       	sbc	r31, r27
		lowerAA, lowerEE, lowerII,
		lowerOO, lowerDO,    NULL,
		lowerUU, lowerDU,    NULL,
	0x00};
	
	int len[5] = {
 30a:	ff af       	std	Y+63, r31	; 0x3f
 30c:	ee af       	std	Y+62, r30	; 0x3e
		0,
		strlen(line0),
		strlen(line1),
		strlen(line2),
 30e:	a4 2f       	mov	r26, r20
 310:	b5 2f       	mov	r27, r21
 312:	fd 01       	movw	r30, r26
 314:	01 90       	ld	r0, Z+
 316:	00 20       	and	r0, r0
 318:	e9 f7       	brne	.-6      	; 0x314 <lcdPrintHun+0x98>
 31a:	31 97       	sbiw	r30, 0x01	; 1
 31c:	ea 1b       	sub	r30, r26
 31e:	fb 0b       	sbc	r31, r27
		lowerAA, lowerEE, lowerII,
		lowerOO, lowerDO,    NULL,
		lowerUU, lowerDU,    NULL,
	0x00};
	
	int len[5] = {
 320:	22 96       	adiw	r28, 0x02	; 2
 322:	ff af       	std	Y+63, r31	; 0x3f
 324:	ee af       	std	Y+62, r30	; 0x3e
 326:	22 97       	sbiw	r28, 0x02	; 2
		0,
		strlen(line0),
		strlen(line1),
		strlen(line2),
		strlen(line3)
 328:	a2 2f       	mov	r26, r18
 32a:	b3 2f       	mov	r27, r19
 32c:	fd 01       	movw	r30, r26
 32e:	01 90       	ld	r0, Z+
 330:	00 20       	and	r0, r0
 332:	e9 f7       	brne	.-6      	; 0x32e <lcdPrintHun+0xb2>
 334:	31 97       	sbiw	r30, 0x01	; 1
 336:	ea 1b       	sub	r30, r26
 338:	fb 0b       	sbc	r31, r27
		lowerAA, lowerEE, lowerII,
		lowerOO, lowerDO,    NULL,
		lowerUU, lowerDU,    NULL,
	0x00};
	
	int len[5] = {
 33a:	24 96       	adiw	r28, 0x04	; 4
 33c:	ff af       	std	Y+63, r31	; 0x3f
 33e:	ee af       	std	Y+62, r30	; 0x3e
 340:	24 97       	sbiw	r28, 0x04	; 4
		strlen(line3)
	};
	
	int fcnt = 0, offset = 0, found[8];
	char concat[65], subbuff[17];
	memset(found, -1, 9 * sizeof(int));
 342:	42 e1       	ldi	r20, 0x12	; 18
 344:	50 e0       	ldi	r21, 0x00	; 0
 346:	6f ef       	ldi	r22, 0xFF	; 255
 348:	7f ef       	ldi	r23, 0xFF	; 255
 34a:	ce 01       	movw	r24, r28
 34c:	8c 5b       	subi	r24, 0xBC	; 188
 34e:	9f 4f       	sbci	r25, 0xFF	; 255
 350:	0e 94 bf 04 	call	0x97e	; 0x97e <memset>
	memset(concat, 0, 65);
 354:	6e 01       	movw	r12, r28
 356:	84 e5       	ldi	r24, 0x54	; 84
 358:	c8 0e       	add	r12, r24
 35a:	d1 1c       	adc	r13, r1
 35c:	81 e4       	ldi	r24, 0x41	; 65
 35e:	f6 01       	movw	r30, r12
 360:	11 92       	st	Z+, r1
 362:	8a 95       	dec	r24
 364:	e9 f7       	brne	.-6      	; 0x360 <lcdPrintHun+0xe4>
	
	char bufsrtcatl[17];
	STRCATL(concat, bufsrtcatl, line0, 16);
 366:	0f 93       	push	r16
 368:	1f 93       	push	r17
 36a:	0f 2e       	mov	r0, r31
 36c:	f3 eb       	ldi	r31, 0xB3	; 179
 36e:	ef 2e       	mov	r14, r31
 370:	f1 e0       	ldi	r31, 0x01	; 1
 372:	ff 2e       	mov	r15, r31
 374:	f0 2d       	mov	r31, r0
 376:	ff 92       	push	r15
 378:	ef 92       	push	r14
 37a:	8e 01       	movw	r16, r28
 37c:	0a 55       	subi	r16, 0x5A	; 90
 37e:	1f 4f       	sbci	r17, 0xFF	; 255
 380:	1f 93       	push	r17
 382:	0f 93       	push	r16
 384:	0e 94 d1 04 	call	0x9a2	; 0x9a2 <sprintf>
 388:	b8 01       	movw	r22, r16
 38a:	c6 01       	movw	r24, r12
 38c:	0e 94 c6 04 	call	0x98c	; 0x98c <strcat>
	STRCATL(concat, bufsrtcatl, line1, 16);
 390:	6f 92       	push	r6
 392:	7f 92       	push	r7
 394:	ff 92       	push	r15
 396:	ef 92       	push	r14
 398:	1f 93       	push	r17
 39a:	0f 93       	push	r16
 39c:	0e 94 d1 04 	call	0x9a2	; 0x9a2 <sprintf>
 3a0:	b8 01       	movw	r22, r16
 3a2:	c6 01       	movw	r24, r12
 3a4:	0e 94 c6 04 	call	0x98c	; 0x98c <strcat>
	STRCATL(concat, bufsrtcatl, line2, 16);
 3a8:	8f 92       	push	r8
 3aa:	9f 92       	push	r9
 3ac:	ff 92       	push	r15
 3ae:	ef 92       	push	r14
 3b0:	1f 93       	push	r17
 3b2:	0f 93       	push	r16
 3b4:	0e 94 d1 04 	call	0x9a2	; 0x9a2 <sprintf>
 3b8:	b8 01       	movw	r22, r16
 3ba:	c6 01       	movw	r24, r12
 3bc:	0e 94 c6 04 	call	0x98c	; 0x98c <strcat>
	STRCATL(concat, bufsrtcatl, line3, 16);
 3c0:	af 92       	push	r10
 3c2:	bf 92       	push	r11
 3c4:	ff 92       	push	r15
 3c6:	ef 92       	push	r14
 3c8:	1f 93       	push	r17
 3ca:	0f 93       	push	r16
 3cc:	0e 94 d1 04 	call	0x9a2	; 0x9a2 <sprintf>
 3d0:	b8 01       	movw	r22, r16
 3d2:	c6 01       	movw	r24, r12
 3d4:	0e 94 c6 04 	call	0x98c	; 0x98c <strcat>
	
	lcdSendCmd(LCD_CMD_RETHOME);
 3d8:	82 e0       	ldi	r24, 0x02	; 2
 3da:	0e 94 b6 00 	call	0x16c	; 0x16c <lcdSendCmd>
	lcdSendCmd(LCD_CMD_DDRAMAD + 0x28);
 3de:	88 ea       	ldi	r24, 0xA8	; 168
 3e0:	0e 94 b6 00 	call	0x16c	; 0x16c <lcdSendCmd>
	
	for (int i = 0; concat[i] != 0; i++)
 3e4:	0f b6       	in	r0, 0x3f	; 63
 3e6:	f8 94       	cli
 3e8:	de bf       	out	0x3e, r29	; 62
 3ea:	0f be       	out	0x3f, r0	; 63
 3ec:	cd bf       	out	0x3d, r28	; 61
 3ee:	e1 2c       	mov	r14, r1
 3f0:	f1 2c       	mov	r15, r1
		strlen(line1),
		strlen(line2),
		strlen(line3)
	};
	
	int fcnt = 0, offset = 0, found[8];
 3f2:	00 e0       	ldi	r16, 0x00	; 0
 3f4:	10 e0       	ldi	r17, 0x00	; 0
	STRCATL(concat, bufsrtcatl, line3, 16);
	
	lcdSendCmd(LCD_CMD_RETHOME);
	lcdSendCmd(LCD_CMD_DDRAMAD + 0x28);
	
	for (int i = 0; concat[i] != 0; i++)
 3f6:	68 c0       	rjmp	.+208    	; 0x4c8 <__LOCK_REGION_LENGTH__+0xc8>
	{
		int index = ((concat[i] > 0x7f) ? _findChar(hunLetters, concat[i]) : -1);
 3f8:	66 23       	and	r22, r22
 3fa:	34 f4       	brge	.+12     	; 0x408 <__LOCK_REGION_LENGTH__+0x8>
 3fc:	ce 01       	movw	r24, r28
 3fe:	01 96       	adiw	r24, 0x01	; 1
 400:	0e 94 91 04 	call	0x922	; 0x922 <_findChar>
 404:	6c 01       	movw	r12, r24
 406:	03 c0       	rjmp	.+6      	; 0x40e <__LOCK_REGION_LENGTH__+0xe>
 408:	cc 24       	eor	r12, r12
 40a:	ca 94       	dec	r12
 40c:	dc 2c       	mov	r13, r12
		if (index > -1)
 40e:	dd 20       	and	r13, r13
 410:	0c f4       	brge	.+2      	; 0x414 <__LOCK_REGION_LENGTH__+0x14>
 412:	57 c0       	rjmp	.+174    	; 0x4c2 <__LOCK_REGION_LENGTH__+0xc2>
		{
			if (replacement[index] != NULL)
 414:	f6 01       	movw	r30, r12
 416:	ee 0f       	add	r30, r30
 418:	ff 1f       	adc	r31, r31
 41a:	81 e0       	ldi	r24, 0x01	; 1
 41c:	90 e0       	ldi	r25, 0x00	; 0
 41e:	8c 0f       	add	r24, r28
 420:	9d 1f       	adc	r25, r29
 422:	e8 0f       	add	r30, r24
 424:	f9 1f       	adc	r31, r25
 426:	83 89       	ldd	r24, Z+19	; 0x13
 428:	94 89       	ldd	r25, Z+20	; 0x14
 42a:	89 2b       	or	r24, r25
 42c:	89 f1       	breq	.+98     	; 0x490 <__LOCK_REGION_LENGTH__+0x90>
			{
				int seen = _findInt(found, index, 8);
 42e:	48 e0       	ldi	r20, 0x08	; 8
 430:	50 e0       	ldi	r21, 0x00	; 0
 432:	b6 01       	movw	r22, r12
 434:	ce 01       	movw	r24, r28
 436:	8c 5b       	subi	r24, 0xBC	; 188
 438:	9f 4f       	sbci	r25, 0xFF	; 255
 43a:	0e 94 a1 04 	call	0x942	; 0x942 <_findInt>
				if (seen > -1)
 43e:	99 23       	and	r25, r25
 440:	4c f0       	brlt	.+18     	; 0x454 <__LOCK_REGION_LENGTH__+0x54>
					concat[i] = seen + 8;
 442:	e4 e5       	ldi	r30, 0x54	; 84
 444:	f0 e0       	ldi	r31, 0x00	; 0
 446:	ec 0f       	add	r30, r28
 448:	fd 1f       	adc	r31, r29
 44a:	ee 0d       	add	r30, r14
 44c:	ff 1d       	adc	r31, r15
 44e:	88 5f       	subi	r24, 0xF8	; 248
 450:	80 83       	st	Z, r24
 452:	37 c0       	rjmp	.+110    	; 0x4c2 <__LOCK_REGION_LENGTH__+0xc2>
				else
				{
					if (fcnt < limit)
 454:	80 91 70 01 	lds	r24, 0x0170	; 0x800170 <limit>
 458:	90 91 71 01 	lds	r25, 0x0171	; 0x800171 <limit+0x1>
 45c:	08 17       	cp	r16, r24
 45e:	19 07       	cpc	r17, r25
 460:	84 f5       	brge	.+96     	; 0x4c2 <__LOCK_REGION_LENGTH__+0xc2>
					{
						found[fcnt] = index;
 462:	f8 01       	movw	r30, r16
 464:	ee 0f       	add	r30, r30
 466:	ff 1f       	adc	r31, r31
 468:	84 e4       	ldi	r24, 0x44	; 68
 46a:	90 e0       	ldi	r25, 0x00	; 0
 46c:	8c 0f       	add	r24, r28
 46e:	9d 1f       	adc	r25, r29
 470:	e8 0f       	add	r30, r24
 472:	f9 1f       	adc	r31, r25
 474:	d1 82       	std	Z+1, r13	; 0x01
 476:	c0 82       	st	Z, r12
						concat[i] = fcnt + 8;
 478:	e4 e5       	ldi	r30, 0x54	; 84
 47a:	f0 e0       	ldi	r31, 0x00	; 0
 47c:	ec 0f       	add	r30, r28
 47e:	fd 1f       	adc	r31, r29
 480:	ee 0d       	add	r30, r14
 482:	ff 1d       	adc	r31, r15
 484:	88 e0       	ldi	r24, 0x08	; 8
 486:	80 0f       	add	r24, r16
 488:	80 83       	st	Z, r24
						fcnt++;
 48a:	0f 5f       	subi	r16, 0xFF	; 255
 48c:	1f 4f       	sbci	r17, 0xFF	; 255
 48e:	19 c0       	rjmp	.+50     	; 0x4c2 <__LOCK_REGION_LENGTH__+0xc2>
					}
				}
			}
			else
			{
				if (index == 5 || index == 14)
 490:	95 e0       	ldi	r25, 0x05	; 5
 492:	c9 16       	cp	r12, r25
 494:	d1 04       	cpc	r13, r1
 496:	21 f0       	breq	.+8      	; 0x4a0 <__LOCK_REGION_LENGTH__+0xa0>
 498:	ee e0       	ldi	r30, 0x0E	; 14
 49a:	ce 16       	cp	r12, r30
 49c:	d1 04       	cpc	r13, r1
 49e:	49 f4       	brne	.+18     	; 0x4b2 <__LOCK_REGION_LENGTH__+0xb2>
					concat[i] = 0xef;
 4a0:	e4 e5       	ldi	r30, 0x54	; 84
 4a2:	f0 e0       	ldi	r31, 0x00	; 0
 4a4:	ec 0f       	add	r30, r28
 4a6:	fd 1f       	adc	r31, r29
 4a8:	ee 0d       	add	r30, r14
 4aa:	ff 1d       	adc	r31, r15
 4ac:	8f ee       	ldi	r24, 0xEF	; 239
 4ae:	80 83       	st	Z, r24
 4b0:	08 c0       	rjmp	.+16     	; 0x4c2 <__LOCK_REGION_LENGTH__+0xc2>
				else
					concat[i] = 0xf5;
 4b2:	e4 e5       	ldi	r30, 0x54	; 84
 4b4:	f0 e0       	ldi	r31, 0x00	; 0
 4b6:	ec 0f       	add	r30, r28
 4b8:	fd 1f       	adc	r31, r29
 4ba:	ee 0d       	add	r30, r14
 4bc:	ff 1d       	adc	r31, r15
 4be:	85 ef       	ldi	r24, 0xF5	; 245
 4c0:	80 83       	st	Z, r24
	STRCATL(concat, bufsrtcatl, line3, 16);
	
	lcdSendCmd(LCD_CMD_RETHOME);
	lcdSendCmd(LCD_CMD_DDRAMAD + 0x28);
	
	for (int i = 0; concat[i] != 0; i++)
 4c2:	ff ef       	ldi	r31, 0xFF	; 255
 4c4:	ef 1a       	sub	r14, r31
 4c6:	ff 0a       	sbc	r15, r31
 4c8:	e4 e5       	ldi	r30, 0x54	; 84
 4ca:	f0 e0       	ldi	r31, 0x00	; 0
 4cc:	ec 0f       	add	r30, r28
 4ce:	fd 1f       	adc	r31, r29
 4d0:	ee 0d       	add	r30, r14
 4d2:	ff 1d       	adc	r31, r15
 4d4:	60 81       	ld	r22, Z
 4d6:	61 11       	cpse	r22, r1
 4d8:	8f cf       	rjmp	.-226    	; 0x3f8 <lcdPrintHun+0x17c>
 4da:	e1 2c       	mov	r14, r1
 4dc:	f1 2c       	mov	r15, r1
 4de:	1c c0       	rjmp	.+56     	; 0x518 <__LOCK_REGION_LENGTH__+0x118>
			}
		}
	}
		
	for (int i = 0; i < fcnt; i++)
		lcdCreateChar(i, replacement[found[i]]);
 4e0:	f7 01       	movw	r30, r14
 4e2:	ee 0f       	add	r30, r30
 4e4:	ff 1f       	adc	r31, r31
 4e6:	84 e4       	ldi	r24, 0x44	; 68
 4e8:	90 e0       	ldi	r25, 0x00	; 0
 4ea:	8c 0f       	add	r24, r28
 4ec:	9d 1f       	adc	r25, r29
 4ee:	e8 0f       	add	r30, r24
 4f0:	f9 1f       	adc	r31, r25
 4f2:	01 90       	ld	r0, Z+
 4f4:	f0 81       	ld	r31, Z
 4f6:	e0 2d       	mov	r30, r0
 4f8:	ee 0f       	add	r30, r30
 4fa:	ff 1f       	adc	r31, r31
 4fc:	81 e0       	ldi	r24, 0x01	; 1
 4fe:	90 e0       	ldi	r25, 0x00	; 0
 500:	8c 0f       	add	r24, r28
 502:	9d 1f       	adc	r25, r29
 504:	e8 0f       	add	r30, r24
 506:	f9 1f       	adc	r31, r25
 508:	63 89       	ldd	r22, Z+19	; 0x13
 50a:	74 89       	ldd	r23, Z+20	; 0x14
 50c:	8e 2d       	mov	r24, r14
 50e:	0e 94 e4 00 	call	0x1c8	; 0x1c8 <lcdCreateChar>
					concat[i] = 0xf5;
			}
		}
	}
		
	for (int i = 0; i < fcnt; i++)
 512:	9f ef       	ldi	r25, 0xFF	; 255
 514:	e9 1a       	sub	r14, r25
 516:	f9 0a       	sbc	r15, r25
 518:	e0 16       	cp	r14, r16
 51a:	f1 06       	cpc	r15, r17
 51c:	0c f3       	brlt	.-62     	; 0x4e0 <__LOCK_REGION_LENGTH__+0xe0>
		lcdCreateChar(i, replacement[found[i]]);
	lcdSendCmd(LCD_CMD_DDRAMAD);
 51e:	80 e8       	ldi	r24, 0x80	; 128
 520:	0e 94 b6 00 	call	0x16c	; 0x16c <lcdSendCmd>
	
	for (int i = 0; i < 4; i++)
 524:	e1 2c       	mov	r14, r1
 526:	f1 2c       	mov	r15, r1
		strlen(line1),
		strlen(line2),
		strlen(line3)
	};
	
	int fcnt = 0, offset = 0, found[8];
 528:	a1 2c       	mov	r10, r1
 52a:	b1 2c       	mov	r11, r1
		
	for (int i = 0; i < fcnt; i++)
		lcdCreateChar(i, replacement[found[i]]);
	lcdSendCmd(LCD_CMD_DDRAMAD);
	
	for (int i = 0; i < 4; i++)
 52c:	31 c0       	rjmp	.+98     	; 0x590 <__LOCK_REGION_LENGTH__+0x190>
	{
		memset(subbuff, 0, 17);
 52e:	6e 01       	movw	r12, r28
 530:	e5 e9       	ldi	r30, 0x95	; 149
 532:	ce 0e       	add	r12, r30
 534:	d1 1c       	adc	r13, r1
 536:	81 e1       	ldi	r24, 0x11	; 17
 538:	f6 01       	movw	r30, r12
 53a:	11 92       	st	Z+, r1
 53c:	8a 95       	dec	r24
 53e:	e9 f7       	brne	.-6      	; 0x53a <__LOCK_REGION_LENGTH__+0x13a>
		memcpy(subbuff, &concat[len[i]] + offset, len[i + 1]);
 540:	37 01       	movw	r6, r14
 542:	ff ef       	ldi	r31, 0xFF	; 255
 544:	6f 1a       	sub	r6, r31
 546:	7f 0a       	sbc	r7, r31
 548:	f3 01       	movw	r30, r6
 54a:	ee 0f       	add	r30, r30
 54c:	ff 1f       	adc	r31, r31
 54e:	81 e0       	ldi	r24, 0x01	; 1
 550:	90 e0       	ldi	r25, 0x00	; 0
 552:	8c 0f       	add	r24, r28
 554:	9d 1f       	adc	r25, r29
 556:	e8 0f       	add	r30, r24
 558:	f9 1f       	adc	r31, r25
 55a:	41 ad       	ldd	r20, Z+57	; 0x39
 55c:	52 ad       	ldd	r21, Z+58	; 0x3a
 55e:	f7 01       	movw	r30, r14
 560:	ee 0f       	add	r30, r30
 562:	ff 1f       	adc	r31, r31
 564:	e8 0f       	add	r30, r24
 566:	f9 1f       	adc	r31, r25
 568:	81 ac       	ldd	r8, Z+57	; 0x39
 56a:	92 ac       	ldd	r9, Z+58	; 0x3a
 56c:	64 e5       	ldi	r22, 0x54	; 84
 56e:	70 e0       	ldi	r23, 0x00	; 0
 570:	6c 0f       	add	r22, r28
 572:	7d 1f       	adc	r23, r29
 574:	68 0d       	add	r22, r8
 576:	79 1d       	adc	r23, r9
 578:	6a 0d       	add	r22, r10
 57a:	7b 1d       	adc	r23, r11
 57c:	c6 01       	movw	r24, r12
 57e:	0e 94 b6 04 	call	0x96c	; 0x96c <memcpy>
		lcdPrint(subbuff, i);
 582:	b7 01       	movw	r22, r14
 584:	c6 01       	movw	r24, r12
 586:	0e 94 05 01 	call	0x20a	; 0x20a <lcdPrint>
		offset += len[i];
 58a:	a8 0c       	add	r10, r8
 58c:	b9 1c       	adc	r11, r9
		
	for (int i = 0; i < fcnt; i++)
		lcdCreateChar(i, replacement[found[i]]);
	lcdSendCmd(LCD_CMD_DDRAMAD);
	
	for (int i = 0; i < 4; i++)
 58e:	73 01       	movw	r14, r6
 590:	94 e0       	ldi	r25, 0x04	; 4
 592:	e9 16       	cp	r14, r25
 594:	f1 04       	cpc	r15, r1
 596:	5c f2       	brlt	.-106    	; 0x52e <__LOCK_REGION_LENGTH__+0x12e>
		lcdPrint(subbuff, i);
		offset += len[i];
	}
	
	return fcnt;
}
 598:	c8 01       	movw	r24, r16
 59a:	ca 54       	subi	r28, 0x4A	; 74
 59c:	df 4f       	sbci	r29, 0xFF	; 255
 59e:	0f b6       	in	r0, 0x3f	; 63
 5a0:	f8 94       	cli
 5a2:	de bf       	out	0x3e, r29	; 62
 5a4:	0f be       	out	0x3f, r0	; 63
 5a6:	cd bf       	out	0x3d, r28	; 61
 5a8:	df 91       	pop	r29
 5aa:	cf 91       	pop	r28
 5ac:	1f 91       	pop	r17
 5ae:	0f 91       	pop	r16
 5b0:	ff 90       	pop	r15
 5b2:	ef 90       	pop	r14
 5b4:	df 90       	pop	r13
 5b6:	cf 90       	pop	r12
 5b8:	bf 90       	pop	r11
 5ba:	af 90       	pop	r10
 5bc:	9f 90       	pop	r9
 5be:	8f 90       	pop	r8
 5c0:	7f 90       	pop	r7
 5c2:	6f 90       	pop	r6
 5c4:	08 95       	ret

000005c6 <lcdInit>:
	_delay_ms(1);
}

void lcdInit()
{
	DDRF = LCD_PIN_EN | LCD_PIN_RW | LCD_PIN_RS;
 5c6:	8e e0       	ldi	r24, 0x0E	; 14
 5c8:	80 93 61 00 	sts	0x0061, r24	; 0x800061 <__TEXT_REGION_LENGTH__+0x7f0061>
 5cc:	2f ef       	ldi	r18, 0xFF	; 255
 5ce:	89 ef       	ldi	r24, 0xF9	; 249
 5d0:	90 e0       	ldi	r25, 0x00	; 0
 5d2:	21 50       	subi	r18, 0x01	; 1
 5d4:	80 40       	sbci	r24, 0x00	; 0
 5d6:	90 40       	sbci	r25, 0x00	; 0
 5d8:	e1 f7       	brne	.-8      	; 0x5d2 <lcdInit+0xc>
 5da:	00 c0       	rjmp	.+0      	; 0x5dc <lcdInit+0x16>
 5dc:	00 00       	nop
	
	_delay_ms(40);
	
	_writeRegister(LCD_CTRL_REGISTER, 3);
 5de:	63 e0       	ldi	r22, 0x03	; 3
 5e0:	80 e0       	ldi	r24, 0x00	; 0
 5e2:	90 e0       	ldi	r25, 0x00	; 0
 5e4:	0e 94 6f 00 	call	0xde	; 0xde <_writeRegister>
 5e8:	8f e0       	ldi	r24, 0x0F	; 15
 5ea:	97 e2       	ldi	r25, 0x27	; 39
 5ec:	01 97       	sbiw	r24, 0x01	; 1
 5ee:	f1 f7       	brne	.-4      	; 0x5ec <lcdInit+0x26>
 5f0:	00 c0       	rjmp	.+0      	; 0x5f2 <lcdInit+0x2c>
 5f2:	00 00       	nop
	_delay_ms(5);
	_writeRegister(LCD_CTRL_REGISTER, 3);
 5f4:	63 e0       	ldi	r22, 0x03	; 3
 5f6:	80 e0       	ldi	r24, 0x00	; 0
 5f8:	90 e0       	ldi	r25, 0x00	; 0
 5fa:	0e 94 6f 00 	call	0xde	; 0xde <_writeRegister>
 5fe:	8f ec       	ldi	r24, 0xCF	; 207
 600:	97 e0       	ldi	r25, 0x07	; 7
 602:	01 97       	sbiw	r24, 0x01	; 1
 604:	f1 f7       	brne	.-4      	; 0x602 <lcdInit+0x3c>
 606:	00 c0       	rjmp	.+0      	; 0x608 <lcdInit+0x42>
 608:	00 00       	nop
	_delay_ms(1);
	_writeRegister(LCD_CTRL_REGISTER, 3);
 60a:	63 e0       	ldi	r22, 0x03	; 3
 60c:	80 e0       	ldi	r24, 0x00	; 0
 60e:	90 e0       	ldi	r25, 0x00	; 0
 610:	0e 94 6f 00 	call	0xde	; 0xde <_writeRegister>
 614:	8f ec       	ldi	r24, 0xCF	; 207
 616:	97 e0       	ldi	r25, 0x07	; 7
 618:	01 97       	sbiw	r24, 0x01	; 1
 61a:	f1 f7       	brne	.-4      	; 0x618 <lcdInit+0x52>
 61c:	00 c0       	rjmp	.+0      	; 0x61e <lcdInit+0x58>
 61e:	00 00       	nop
	_delay_ms(1);
	_writeRegister(LCD_CTRL_REGISTER, 2);
 620:	62 e0       	ldi	r22, 0x02	; 2
 622:	80 e0       	ldi	r24, 0x00	; 0
 624:	90 e0       	ldi	r25, 0x00	; 0
 626:	0e 94 6f 00 	call	0xde	; 0xde <_writeRegister>
	
	lcdSendCmd(LCD_CMD_FUNCSET | 8);
 62a:	88 e2       	ldi	r24, 0x28	; 40
 62c:	0e 94 b6 00 	call	0x16c	; 0x16c <lcdSendCmd>
	lcdSendCmd(LCD_CMD_DSPCTRL | 14);
 630:	8e e0       	ldi	r24, 0x0E	; 14
 632:	0e 94 b6 00 	call	0x16c	; 0x16c <lcdSendCmd>
	lcdSendCmd(LCD_CMD_CLRDISP);
 636:	81 e0       	ldi	r24, 0x01	; 1
 638:	0e 94 b6 00 	call	0x16c	; 0x16c <lcdSendCmd>
	lcdSendCmd(LCD_CMD_ENTMODE | 2);
 63c:	86 e0       	ldi	r24, 0x06	; 6
 63e:	0e 94 b6 00 	call	0x16c	; 0x16c <lcdSendCmd>
	lcdSendCmd(LCD_CMD_RETHOME);
 642:	82 e0       	ldi	r24, 0x02	; 2
 644:	0e 94 b6 00 	call	0x16c	; 0x16c <lcdSendCmd>
	
	lcdPrintHun("  T-Bird alapú", "ArtNetv4+SLLCPv1", "   csomópont", ">> Betöltés...");
 648:	29 eb       	ldi	r18, 0xB9	; 185
 64a:	31 e0       	ldi	r19, 0x01	; 1
 64c:	48 ec       	ldi	r20, 0xC8	; 200
 64e:	51 e0       	ldi	r21, 0x01	; 1
 650:	65 ed       	ldi	r22, 0xD5	; 213
 652:	71 e0       	ldi	r23, 0x01	; 1
 654:	86 ee       	ldi	r24, 0xE6	; 230
 656:	91 e0       	ldi	r25, 0x01	; 1
 658:	0e 94 3e 01 	call	0x27c	; 0x27c <lcdPrintHun>
 65c:	9f ef       	ldi	r25, 0xFF	; 255
 65e:	24 e3       	ldi	r18, 0x34	; 52
 660:	8c e0       	ldi	r24, 0x0C	; 12
 662:	91 50       	subi	r25, 0x01	; 1
 664:	20 40       	sbci	r18, 0x00	; 0
 666:	80 40       	sbci	r24, 0x00	; 0
 668:	e1 f7       	brne	.-8      	; 0x662 <lcdInit+0x9c>
 66a:	00 c0       	rjmp	.+0      	; 0x66c <lcdInit+0xa6>
 66c:	00 00       	nop
	_delay_ms(500);
	lcdPrintHun("     T-Bird     ", "    firmware    ", "  verzió v1.0", ">> Betöltés...");
 66e:	29 eb       	ldi	r18, 0xB9	; 185
 670:	31 e0       	ldi	r19, 0x01	; 1
 672:	45 ef       	ldi	r20, 0xF5	; 245
 674:	51 e0       	ldi	r21, 0x01	; 1
 676:	63 e0       	ldi	r22, 0x03	; 3
 678:	72 e0       	ldi	r23, 0x02	; 2
 67a:	84 e1       	ldi	r24, 0x14	; 20
 67c:	92 e0       	ldi	r25, 0x02	; 2
 67e:	0e 94 3e 01 	call	0x27c	; 0x27c <lcdPrintHun>
 682:	9f ef       	ldi	r25, 0xFF	; 255
 684:	21 ee       	ldi	r18, 0xE1	; 225
 686:	84 e0       	ldi	r24, 0x04	; 4
 688:	91 50       	subi	r25, 0x01	; 1
 68a:	20 40       	sbci	r18, 0x00	; 0
 68c:	80 40       	sbci	r24, 0x00	; 0
 68e:	e1 f7       	brne	.-8      	; 0x688 <lcdInit+0xc2>
 690:	00 c0       	rjmp	.+0      	; 0x692 <lcdInit+0xcc>
 692:	00 00       	nop
 694:	08 95       	ret

00000696 <lcdGetLimit>:
}

int lcdGetLimit()
{
	return limit;
}
 696:	80 91 70 01 	lds	r24, 0x0170	; 0x800170 <limit>
 69a:	90 91 71 01 	lds	r25, 0x0171	; 0x800171 <limit+0x1>
 69e:	08 95       	ret

000006a0 <lcdSetLimit>:

void lcdSetLimit(int l)
{
	limit = l;
 6a0:	90 93 71 01 	sts	0x0171, r25	; 0x800171 <limit+0x1>
 6a4:	80 93 70 01 	sts	0x0170, r24	; 0x800170 <limit>
 6a8:	08 95       	ret

000006aa <ledClearUniqueArea>:
	ledUniqueMask = uniqueMask;
}

void ledClearUniqueArea()
{
	PORTD &= ~(ledUniqueMask & 0xf0);
 6aa:	92 b3       	in	r25, 0x12	; 18
 6ac:	80 91 44 02 	lds	r24, 0x0244	; 0x800244 <__data_end>
 6b0:	80 7f       	andi	r24, 0xF0	; 240
 6b2:	80 95       	com	r24
 6b4:	89 23       	and	r24, r25
 6b6:	82 bb       	out	0x12, r24	; 18
	PORTB &= ~((ledUniqueMask & 0x0f) << 4);
 6b8:	28 b3       	in	r18, 0x18	; 24
 6ba:	90 91 44 02 	lds	r25, 0x0244	; 0x800244 <__data_end>
 6be:	30 e1       	ldi	r19, 0x10	; 16
 6c0:	93 9f       	mul	r25, r19
 6c2:	c0 01       	movw	r24, r0
 6c4:	11 24       	eor	r1, r1
 6c6:	80 95       	com	r24
 6c8:	82 23       	and	r24, r18
 6ca:	88 bb       	out	0x18, r24	; 24
 6cc:	08 95       	ret

000006ce <ledSet>:
#include "leds.h"

char ledUniqueMask = 0;

void ledSet(int id, int val)
{
 6ce:	0f 93       	push	r16
 6d0:	1f 93       	push	r17
 6d2:	cf 93       	push	r28
 6d4:	df 93       	push	r29
 6d6:	ec 01       	movw	r28, r24
 6d8:	8b 01       	movw	r16, r22
	if (id > 1 && id < _BV(6))
 6da:	02 97       	sbiw	r24, 0x02	; 2
 6dc:	ce 97       	sbiw	r24, 0x3e	; 62
 6de:	10 f4       	brcc	.+4      	; 0x6e4 <ledSet+0x16>
		ledClearUniqueArea();
 6e0:	0e 94 55 03 	call	0x6aa	; 0x6aa <ledClearUniqueArea>
	if (val)
 6e4:	01 2b       	or	r16, r17
 6e6:	99 f0       	breq	.+38     	; 0x70e <ledSet+0x40>
		if (id & 0xf0)
 6e8:	ce 01       	movw	r24, r28
 6ea:	80 7f       	andi	r24, 0xF0	; 240
 6ec:	99 27       	eor	r25, r25
 6ee:	89 2b       	or	r24, r25
 6f0:	21 f0       	breq	.+8      	; 0x6fa <ledSet+0x2c>
			PORTD |= id;
 6f2:	82 b3       	in	r24, 0x12	; 18
 6f4:	c8 2b       	or	r28, r24
 6f6:	c2 bb       	out	0x12, r28	; 18
 6f8:	1a c0       	rjmp	.+52     	; 0x72e <ledSet+0x60>
		else
			PORTB |= id << 4;
 6fa:	88 b3       	in	r24, 0x18	; 24
 6fc:	c2 95       	swap	r28
 6fe:	d2 95       	swap	r29
 700:	d0 7f       	andi	r29, 0xF0	; 240
 702:	dc 27       	eor	r29, r28
 704:	c0 7f       	andi	r28, 0xF0	; 240
 706:	dc 27       	eor	r29, r28
 708:	c8 2b       	or	r28, r24
 70a:	c8 bb       	out	0x18, r28	; 24
 70c:	10 c0       	rjmp	.+32     	; 0x72e <ledSet+0x60>
	else
		if (id & 0xf0)
 70e:	ce 01       	movw	r24, r28
 710:	80 7f       	andi	r24, 0xF0	; 240
 712:	99 27       	eor	r25, r25
 714:	89 2b       	or	r24, r25
 716:	29 f0       	breq	.+10     	; 0x722 <ledSet+0x54>
			PORTD &= ~id;
 718:	82 b3       	in	r24, 0x12	; 18
 71a:	c0 95       	com	r28
 71c:	c8 23       	and	r28, r24
 71e:	c2 bb       	out	0x12, r28	; 18
 720:	06 c0       	rjmp	.+12     	; 0x72e <ledSet+0x60>
		else
			PORTB &= ~(id << 4);
 722:	88 b3       	in	r24, 0x18	; 24
 724:	c2 95       	swap	r28
 726:	c0 7f       	andi	r28, 0xF0	; 240
 728:	c0 95       	com	r28
 72a:	c8 23       	and	r28, r24
 72c:	c8 bb       	out	0x18, r28	; 24
}
 72e:	df 91       	pop	r29
 730:	cf 91       	pop	r28
 732:	1f 91       	pop	r17
 734:	0f 91       	pop	r16
 736:	08 95       	ret

00000738 <ledTrigger>:

void ledTrigger(int id)
{
 738:	ac 01       	movw	r20, r24
	char pv = (PIND & 0xf0) | (PINB >> 4);
 73a:	20 b3       	in	r18, 0x10	; 16
 73c:	96 b3       	in	r25, 0x16	; 22
 73e:	20 7f       	andi	r18, 0xF0	; 240
 740:	92 95       	swap	r25
 742:	9f 70       	andi	r25, 0x0F	; 15
 744:	29 2b       	or	r18, r25
	
	ledSet(id, !(pv & id));
 746:	30 e0       	ldi	r19, 0x00	; 0
 748:	24 23       	and	r18, r20
 74a:	35 23       	and	r19, r21
 74c:	61 e0       	ldi	r22, 0x01	; 1
 74e:	70 e0       	ldi	r23, 0x00	; 0
 750:	23 2b       	or	r18, r19
 752:	11 f0       	breq	.+4      	; 0x758 <ledTrigger+0x20>
 754:	60 e0       	ldi	r22, 0x00	; 0
 756:	70 e0       	ldi	r23, 0x00	; 0
 758:	ca 01       	movw	r24, r20
 75a:	0e 94 67 03 	call	0x6ce	; 0x6ce <ledSet>
 75e:	08 95       	ret

00000760 <ledTest>:
}

void ledTest()
{
 760:	cf 93       	push	r28
 762:	df 93       	push	r29
	for (int i = 1; i < 256; i <<= 1)
 764:	c1 e0       	ldi	r28, 0x01	; 1
 766:	d0 e0       	ldi	r29, 0x00	; 0
 768:	1e c0       	rjmp	.+60     	; 0x7a6 <ledTest+0x46>
	{
		ledSet(i, ON);
 76a:	61 e0       	ldi	r22, 0x01	; 1
 76c:	70 e0       	ldi	r23, 0x00	; 0
 76e:	ce 01       	movw	r24, r28
 770:	0e 94 67 03 	call	0x6ce	; 0x6ce <ledSet>
 774:	2f ef       	ldi	r18, 0xFF	; 255
 776:	81 ee       	ldi	r24, 0xE1	; 225
 778:	94 e0       	ldi	r25, 0x04	; 4
 77a:	21 50       	subi	r18, 0x01	; 1
 77c:	80 40       	sbci	r24, 0x00	; 0
 77e:	90 40       	sbci	r25, 0x00	; 0
 780:	e1 f7       	brne	.-8      	; 0x77a <ledTest+0x1a>
 782:	00 c0       	rjmp	.+0      	; 0x784 <ledTest+0x24>
 784:	00 00       	nop
		_delay_ms(200);
		ledSet(i, OFF);
 786:	60 e0       	ldi	r22, 0x00	; 0
 788:	70 e0       	ldi	r23, 0x00	; 0
 78a:	ce 01       	movw	r24, r28
 78c:	0e 94 67 03 	call	0x6ce	; 0x6ce <ledSet>
 790:	2f e7       	ldi	r18, 0x7F	; 127
 792:	88 e3       	ldi	r24, 0x38	; 56
 794:	91 e0       	ldi	r25, 0x01	; 1
 796:	21 50       	subi	r18, 0x01	; 1
 798:	80 40       	sbci	r24, 0x00	; 0
 79a:	90 40       	sbci	r25, 0x00	; 0
 79c:	e1 f7       	brne	.-8      	; 0x796 <ledTest+0x36>
 79e:	00 c0       	rjmp	.+0      	; 0x7a0 <ledTest+0x40>
 7a0:	00 00       	nop
	ledSet(id, !(pv & id));
}

void ledTest()
{
	for (int i = 1; i < 256; i <<= 1)
 7a2:	cc 0f       	add	r28, r28
 7a4:	dd 1f       	adc	r29, r29
 7a6:	cf 3f       	cpi	r28, 0xFF	; 255
 7a8:	d1 05       	cpc	r29, r1
 7aa:	f9 f2       	breq	.-66     	; 0x76a <ledTest+0xa>
 7ac:	f4 f2       	brlt	.-68     	; 0x76a <ledTest+0xa>
		ledSet(i, ON);
		_delay_ms(200);
		ledSet(i, OFF);
		_delay_ms(50);
	}
	PORTD |= 0xf0;
 7ae:	82 b3       	in	r24, 0x12	; 18
 7b0:	80 6f       	ori	r24, 0xF0	; 240
 7b2:	82 bb       	out	0x12, r24	; 18
	PORTB |= 0xf0;
 7b4:	88 b3       	in	r24, 0x18	; 24
 7b6:	80 6f       	ori	r24, 0xF0	; 240
 7b8:	88 bb       	out	0x18, r24	; 24
 7ba:	2f ef       	ldi	r18, 0xFF	; 255
 7bc:	81 ee       	ldi	r24, 0xE1	; 225
 7be:	94 e0       	ldi	r25, 0x04	; 4
 7c0:	21 50       	subi	r18, 0x01	; 1
 7c2:	80 40       	sbci	r24, 0x00	; 0
 7c4:	90 40       	sbci	r25, 0x00	; 0
 7c6:	e1 f7       	brne	.-8      	; 0x7c0 <ledTest+0x60>
 7c8:	00 c0       	rjmp	.+0      	; 0x7ca <ledTest+0x6a>
 7ca:	00 00       	nop
	_delay_ms(200);
	PORTD &= ~0xf0;
 7cc:	82 b3       	in	r24, 0x12	; 18
 7ce:	8f 70       	andi	r24, 0x0F	; 15
 7d0:	82 bb       	out	0x12, r24	; 18
	PORTB &= ~0xf0;
 7d2:	88 b3       	in	r24, 0x18	; 24
 7d4:	8f 70       	andi	r24, 0x0F	; 15
 7d6:	88 bb       	out	0x18, r24	; 24
}
 7d8:	df 91       	pop	r29
 7da:	cf 91       	pop	r28
 7dc:	08 95       	ret

000007de <ledInit>:

void ledInit(char uniqueMask)
{
 7de:	cf 93       	push	r28
 7e0:	c8 2f       	mov	r28, r24
	DDRD |= 0xf0;
 7e2:	81 b3       	in	r24, 0x11	; 17
 7e4:	80 6f       	ori	r24, 0xF0	; 240
 7e6:	81 bb       	out	0x11, r24	; 17
	DDRB |= 0xf0;
 7e8:	87 b3       	in	r24, 0x17	; 23
 7ea:	80 6f       	ori	r24, 0xF0	; 240
 7ec:	87 bb       	out	0x17, r24	; 23
	ledTest();
 7ee:	0e 94 b0 03 	call	0x760	; 0x760 <ledTest>
	ledUniqueMask = uniqueMask;
 7f2:	c0 93 44 02 	sts	0x0244, r28	; 0x800244 <__data_end>
}
 7f6:	cf 91       	pop	r28
 7f8:	08 95       	ret

000007fa <main>:
	upArrow[8] = { 0x00, 0x04, 0x04, 0x0E, 0x0E, 0x1F, 0x00, 0x00 },
  downArrow[8] = { 0x00, 0x00, 0x1F, 0x0E, 0x0E, 0x04, 0x04, 0x00 };


int main(void)
{
 7fa:	cf 93       	push	r28
 7fc:	df 93       	push	r29
 7fe:	cd b7       	in	r28, 0x3d	; 61
 800:	de b7       	in	r29, 0x3e	; 62
 802:	61 97       	sbiw	r28, 0x11	; 17
 804:	0f b6       	in	r0, 0x3f	; 63
 806:	f8 94       	cli
 808:	de bf       	out	0x3e, r29	; 62
 80a:	0f be       	out	0x3f, r0	; 63
 80c:	cd bf       	out	0x3d, r28	; 61
	//important contribution
	DDRA = 0xff;
 80e:	8f ef       	ldi	r24, 0xFF	; 255
 810:	8a bb       	out	0x1a, r24	; 26
	PORTA = 0;
 812:	1b ba       	out	0x1b, r1	; 27
	
	lcdInit();
 814:	0e 94 e3 02 	call	0x5c6	; 0x5c6 <lcdInit>
	ledInit(0x3e);
 818:	8e e3       	ldi	r24, 0x3E	; 62
 81a:	0e 94 ef 03 	call	0x7de	; 0x7de <ledInit>
	
	Static_Limit(5);
 81e:	85 e0       	ldi	r24, 0x05	; 5
 820:	90 e0       	ldi	r25, 0x00	; 0
 822:	0e 94 50 03 	call	0x6a0	; 0x6a0 <lcdSetLimit>
	Static_CustomChar(7, enter);
 826:	62 e7       	ldi	r22, 0x72	; 114
 828:	71 e0       	ldi	r23, 0x01	; 1
 82a:	87 e0       	ldi	r24, 0x07	; 7
 82c:	0e 94 e4 00 	call	0x1c8	; 0x1c8 <lcdCreateChar>
 830:	0e 94 4b 03 	call	0x696	; 0x696 <lcdGetLimit>
 834:	01 97       	sbiw	r24, 0x01	; 1
 836:	0e 94 50 03 	call	0x6a0	; 0x6a0 <lcdSetLimit>
	Static_Clear();	
 83a:	81 e0       	ldi	r24, 0x01	; 1
 83c:	0e 94 b6 00 	call	0x16c	; 0x16c <lcdSendCmd>
 840:	82 e0       	ldi	r24, 0x02	; 2
 842:	0e 94 b6 00 	call	0x16c	; 0x16c <lcdSendCmd>
	//Static_Print("Készenlét.", LCD_EMPTY_LINE, LCD_EMPTY_LINE, LCD_EMPTY_LINE);
	
	DDRG &= ~0x1f;
 846:	e4 e6       	ldi	r30, 0x64	; 100
 848:	f0 e0       	ldi	r31, 0x00	; 0
 84a:	80 81       	ld	r24, Z
 84c:	80 7e       	andi	r24, 0xE0	; 224
 84e:	80 83       	st	Z, r24
	
	char buf[17];
	memset(buf, 0, 17);
 850:	fe 01       	movw	r30, r28
 852:	31 96       	adiw	r30, 0x01	; 1
 854:	81 e1       	ldi	r24, 0x11	; 17
 856:	df 01       	movw	r26, r30
 858:	1d 92       	st	X+, r1
 85a:	8a 95       	dec	r24
 85c:	e9 f7       	brne	.-6      	; 0x858 <__EEPROM_REGION_LENGTH__+0x58>
	
	char pingPrev = 0, pingCurr;
 85e:	80 e0       	ldi	r24, 0x00	; 0
 860:	01 c0       	rjmp	.+2      	; 0x864 <__EEPROM_REGION_LENGTH__+0x64>
 862:	81 2f       	mov	r24, r17
	
	while (1) 
    {
		pingCurr = PING;
 864:	10 91 63 00 	lds	r17, 0x0063	; 0x800063 <__TEXT_REGION_LENGTH__+0x7f0063>
		if (pingCurr != pingPrev)
 868:	81 17       	cp	r24, r17
 86a:	d9 f3       	breq	.-10     	; 0x862 <__EEPROM_REGION_LENGTH__+0x62>
		{
			sprintf(buf, "PING: 0x%02x", PING);
 86c:	80 91 63 00 	lds	r24, 0x0063	; 0x800063 <__TEXT_REGION_LENGTH__+0x7f0063>
 870:	1f 92       	push	r1
 872:	8f 93       	push	r24
 874:	85 e2       	ldi	r24, 0x25	; 37
 876:	92 e0       	ldi	r25, 0x02	; 2
 878:	9f 93       	push	r25
 87a:	8f 93       	push	r24
 87c:	ce 01       	movw	r24, r28
 87e:	01 96       	adiw	r24, 0x01	; 1
 880:	7c 01       	movw	r14, r24
 882:	9f 93       	push	r25
 884:	8f 93       	push	r24
 886:	0e 94 d1 04 	call	0x9a2	; 0x9a2 <sprintf>
			lcdPrint(buf, 0);
 88a:	60 e0       	ldi	r22, 0x00	; 0
 88c:	70 e0       	ldi	r23, 0x00	; 0
 88e:	c7 01       	movw	r24, r14
 890:	0e 94 05 01 	call	0x20a	; 0x20a <lcdPrint>
			sprintf(buf, "PORTleds: 0x%02x", (PIND & 0xf0) | (PINB >> 4));
 894:	80 b3       	in	r24, 0x10	; 16
 896:	96 b3       	in	r25, 0x16	; 22
 898:	92 95       	swap	r25
 89a:	9f 70       	andi	r25, 0x0F	; 15
 89c:	80 7f       	andi	r24, 0xF0	; 240
 89e:	89 2b       	or	r24, r25
 8a0:	1f 92       	push	r1
 8a2:	8f 93       	push	r24
 8a4:	82 e3       	ldi	r24, 0x32	; 50
 8a6:	92 e0       	ldi	r25, 0x02	; 2
 8a8:	9f 93       	push	r25
 8aa:	8f 93       	push	r24
 8ac:	ff 92       	push	r15
 8ae:	ef 92       	push	r14
 8b0:	0e 94 d1 04 	call	0x9a2	; 0x9a2 <sprintf>
			lcdPrint(buf, 1);
 8b4:	61 e0       	ldi	r22, 0x01	; 1
 8b6:	70 e0       	ldi	r23, 0x00	; 0
 8b8:	c7 01       	movw	r24, r14
 8ba:	0e 94 05 01 	call	0x20a	; 0x20a <lcdPrint>
			
			switch(pingCurr)
 8be:	0f b6       	in	r0, 0x3f	; 63
 8c0:	f8 94       	cli
 8c2:	de bf       	out	0x3e, r29	; 62
 8c4:	0f be       	out	0x3f, r0	; 63
 8c6:	cd bf       	out	0x3d, r28	; 61
 8c8:	14 30       	cpi	r17, 0x04	; 4
 8ca:	c1 f0       	breq	.+48     	; 0x8fc <__EEPROM_REGION_LENGTH__+0xfc>
 8cc:	28 f4       	brcc	.+10     	; 0x8d8 <__EEPROM_REGION_LENGTH__+0xd8>
 8ce:	11 30       	cpi	r17, 0x01	; 1
 8d0:	19 f1       	breq	.+70     	; 0x918 <__EEPROM_REGION_LENGTH__+0x118>
 8d2:	12 30       	cpi	r17, 0x02	; 2
 8d4:	d1 f0       	breq	.+52     	; 0x90a <__EEPROM_REGION_LENGTH__+0x10a>
 8d6:	c5 cf       	rjmp	.-118    	; 0x862 <__EEPROM_REGION_LENGTH__+0x62>
 8d8:	18 30       	cpi	r17, 0x08	; 8
 8da:	49 f0       	breq	.+18     	; 0x8ee <__EEPROM_REGION_LENGTH__+0xee>
 8dc:	10 31       	cpi	r17, 0x10	; 16
 8de:	09 f6       	brne	.-126    	; 0x862 <__EEPROM_REGION_LENGTH__+0x62>
			{
				case 0x10: ledSet(LED_SCR_MODE, ON); break;
 8e0:	61 e0       	ldi	r22, 0x01	; 1
 8e2:	70 e0       	ldi	r23, 0x00	; 0
 8e4:	80 e1       	ldi	r24, 0x10	; 16
 8e6:	90 e0       	ldi	r25, 0x00	; 0
 8e8:	0e 94 67 03 	call	0x6ce	; 0x6ce <ledSet>
 8ec:	ba cf       	rjmp	.-140    	; 0x862 <__EEPROM_REGION_LENGTH__+0x62>
				case 0x08: ledSet(LED_SCR_SET,  ON); break;
 8ee:	61 e0       	ldi	r22, 0x01	; 1
 8f0:	70 e0       	ldi	r23, 0x00	; 0
 8f2:	88 e0       	ldi	r24, 0x08	; 8
 8f4:	90 e0       	ldi	r25, 0x00	; 0
 8f6:	0e 94 67 03 	call	0x6ce	; 0x6ce <ledSet>
 8fa:	b3 cf       	rjmp	.-154    	; 0x862 <__EEPROM_REGION_LENGTH__+0x62>
				case 0x04: ledSet(LED_SCR_STAT, ON); break;
 8fc:	61 e0       	ldi	r22, 0x01	; 1
 8fe:	70 e0       	ldi	r23, 0x00	; 0
 900:	84 e0       	ldi	r24, 0x04	; 4
 902:	90 e0       	ldi	r25, 0x00	; 0
 904:	0e 94 67 03 	call	0x6ce	; 0x6ce <ledSet>
 908:	ac cf       	rjmp	.-168    	; 0x862 <__EEPROM_REGION_LENGTH__+0x62>
				case 0x02: ledSet(LED_SCR_DRCT, ON); break;
 90a:	61 e0       	ldi	r22, 0x01	; 1
 90c:	70 e0       	ldi	r23, 0x00	; 0
 90e:	82 e0       	ldi	r24, 0x02	; 2
 910:	90 e0       	ldi	r25, 0x00	; 0
 912:	0e 94 67 03 	call	0x6ce	; 0x6ce <ledSet>
 916:	a5 cf       	rjmp	.-182    	; 0x862 <__EEPROM_REGION_LENGTH__+0x62>
				case 0x01: ledTrigger(LED_BLACKOUT); break;
 918:	81 e0       	ldi	r24, 0x01	; 1
 91a:	90 e0       	ldi	r25, 0x00	; 0
 91c:	0e 94 9c 03 	call	0x738	; 0x738 <ledTrigger>
 920:	a0 cf       	rjmp	.-192    	; 0x862 <__EEPROM_REGION_LENGTH__+0x62>

00000922 <_findChar>:
#include "utils.h"

int _findChar(char* haystack, char needle)
{
 922:	ac 01       	movw	r20, r24
	int ret = -1;
	for (int i = 0; haystack[i] > 0; i++)
 924:	80 e0       	ldi	r24, 0x00	; 0
 926:	90 e0       	ldi	r25, 0x00	; 0
 928:	03 c0       	rjmp	.+6      	; 0x930 <_findChar+0xe>
		if (haystack[i] == needle)
 92a:	26 17       	cp	r18, r22
 92c:	49 f0       	breq	.+18     	; 0x940 <_findChar+0x1e>
#include "utils.h"

int _findChar(char* haystack, char needle)
{
	int ret = -1;
	for (int i = 0; haystack[i] > 0; i++)
 92e:	01 96       	adiw	r24, 0x01	; 1
 930:	fa 01       	movw	r30, r20
 932:	e8 0f       	add	r30, r24
 934:	f9 1f       	adc	r31, r25
 936:	20 81       	ld	r18, Z
 938:	21 11       	cpse	r18, r1
 93a:	f7 cf       	rjmp	.-18     	; 0x92a <_findChar+0x8>
#include "utils.h"

int _findChar(char* haystack, char needle)
{
	int ret = -1;
 93c:	8f ef       	ldi	r24, 0xFF	; 255
 93e:	9f ef       	ldi	r25, 0xFF	; 255
		{
			ret = i;
			break;			
		}
	return ret;
}
 940:	08 95       	ret

00000942 <_findInt>:

int _findInt(int* haystack, int needle, int len)
{
 942:	dc 01       	movw	r26, r24
	int ret = -1;
	for (int i = 0; i < len; i++)
 944:	80 e0       	ldi	r24, 0x00	; 0
 946:	90 e0       	ldi	r25, 0x00	; 0
 948:	0b c0       	rjmp	.+22     	; 0x960 <_findInt+0x1e>
		if (haystack[i] == needle)
 94a:	fc 01       	movw	r30, r24
 94c:	ee 0f       	add	r30, r30
 94e:	ff 1f       	adc	r31, r31
 950:	ea 0f       	add	r30, r26
 952:	fb 1f       	adc	r31, r27
 954:	20 81       	ld	r18, Z
 956:	31 81       	ldd	r19, Z+1	; 0x01
 958:	26 17       	cp	r18, r22
 95a:	37 07       	cpc	r19, r23
 95c:	31 f0       	breq	.+12     	; 0x96a <_findInt+0x28>
}

int _findInt(int* haystack, int needle, int len)
{
	int ret = -1;
	for (int i = 0; i < len; i++)
 95e:	01 96       	adiw	r24, 0x01	; 1
 960:	84 17       	cp	r24, r20
 962:	95 07       	cpc	r25, r21
 964:	94 f3       	brlt	.-28     	; 0x94a <_findInt+0x8>
	return ret;
}

int _findInt(int* haystack, int needle, int len)
{
	int ret = -1;
 966:	8f ef       	ldi	r24, 0xFF	; 255
 968:	9f ef       	ldi	r25, 0xFF	; 255
		{
			ret = i;
			break;
		}
	return ret;
 96a:	08 95       	ret

0000096c <memcpy>:
 96c:	fb 01       	movw	r30, r22
 96e:	dc 01       	movw	r26, r24
 970:	02 c0       	rjmp	.+4      	; 0x976 <memcpy+0xa>
 972:	01 90       	ld	r0, Z+
 974:	0d 92       	st	X+, r0
 976:	41 50       	subi	r20, 0x01	; 1
 978:	50 40       	sbci	r21, 0x00	; 0
 97a:	d8 f7       	brcc	.-10     	; 0x972 <memcpy+0x6>
 97c:	08 95       	ret

0000097e <memset>:
 97e:	dc 01       	movw	r26, r24
 980:	01 c0       	rjmp	.+2      	; 0x984 <memset+0x6>
 982:	6d 93       	st	X+, r22
 984:	41 50       	subi	r20, 0x01	; 1
 986:	50 40       	sbci	r21, 0x00	; 0
 988:	e0 f7       	brcc	.-8      	; 0x982 <memset+0x4>
 98a:	08 95       	ret

0000098c <strcat>:
 98c:	fb 01       	movw	r30, r22
 98e:	dc 01       	movw	r26, r24
 990:	0d 90       	ld	r0, X+
 992:	00 20       	and	r0, r0
 994:	e9 f7       	brne	.-6      	; 0x990 <strcat+0x4>
 996:	11 97       	sbiw	r26, 0x01	; 1
 998:	01 90       	ld	r0, Z+
 99a:	0d 92       	st	X+, r0
 99c:	00 20       	and	r0, r0
 99e:	e1 f7       	brne	.-8      	; 0x998 <strcat+0xc>
 9a0:	08 95       	ret

000009a2 <sprintf>:
 9a2:	ae e0       	ldi	r26, 0x0E	; 14
 9a4:	b0 e0       	ldi	r27, 0x00	; 0
 9a6:	e7 ed       	ldi	r30, 0xD7	; 215
 9a8:	f4 e0       	ldi	r31, 0x04	; 4
 9aa:	0c 94 92 07 	jmp	0xf24	; 0xf24 <__prologue_saves__+0x1c>
 9ae:	0d 89       	ldd	r16, Y+21	; 0x15
 9b0:	1e 89       	ldd	r17, Y+22	; 0x16
 9b2:	86 e0       	ldi	r24, 0x06	; 6
 9b4:	8c 83       	std	Y+4, r24	; 0x04
 9b6:	1a 83       	std	Y+2, r17	; 0x02
 9b8:	09 83       	std	Y+1, r16	; 0x01
 9ba:	8f ef       	ldi	r24, 0xFF	; 255
 9bc:	9f e7       	ldi	r25, 0x7F	; 127
 9be:	9e 83       	std	Y+6, r25	; 0x06
 9c0:	8d 83       	std	Y+5, r24	; 0x05
 9c2:	ae 01       	movw	r20, r28
 9c4:	47 5e       	subi	r20, 0xE7	; 231
 9c6:	5f 4f       	sbci	r21, 0xFF	; 255
 9c8:	6f 89       	ldd	r22, Y+23	; 0x17
 9ca:	78 8d       	ldd	r23, Y+24	; 0x18
 9cc:	ce 01       	movw	r24, r28
 9ce:	01 96       	adiw	r24, 0x01	; 1
 9d0:	0e 94 f3 04 	call	0x9e6	; 0x9e6 <vfprintf>
 9d4:	ef 81       	ldd	r30, Y+7	; 0x07
 9d6:	f8 85       	ldd	r31, Y+8	; 0x08
 9d8:	e0 0f       	add	r30, r16
 9da:	f1 1f       	adc	r31, r17
 9dc:	10 82       	st	Z, r1
 9de:	2e 96       	adiw	r28, 0x0e	; 14
 9e0:	e4 e0       	ldi	r30, 0x04	; 4
 9e2:	0c 94 ae 07 	jmp	0xf5c	; 0xf5c <__epilogue_restores__+0x1c>

000009e6 <vfprintf>:
 9e6:	ab e0       	ldi	r26, 0x0B	; 11
 9e8:	b0 e0       	ldi	r27, 0x00	; 0
 9ea:	e9 ef       	ldi	r30, 0xF9	; 249
 9ec:	f4 e0       	ldi	r31, 0x04	; 4
 9ee:	0c 94 84 07 	jmp	0xf08	; 0xf08 <__prologue_saves__>
 9f2:	6c 01       	movw	r12, r24
 9f4:	7b 01       	movw	r14, r22
 9f6:	8a 01       	movw	r16, r20
 9f8:	fc 01       	movw	r30, r24
 9fa:	17 82       	std	Z+7, r1	; 0x07
 9fc:	16 82       	std	Z+6, r1	; 0x06
 9fe:	83 81       	ldd	r24, Z+3	; 0x03
 a00:	81 ff       	sbrs	r24, 1
 a02:	cc c1       	rjmp	.+920    	; 0xd9c <vfprintf+0x3b6>
 a04:	ce 01       	movw	r24, r28
 a06:	01 96       	adiw	r24, 0x01	; 1
 a08:	3c 01       	movw	r6, r24
 a0a:	f6 01       	movw	r30, r12
 a0c:	93 81       	ldd	r25, Z+3	; 0x03
 a0e:	f7 01       	movw	r30, r14
 a10:	93 fd       	sbrc	r25, 3
 a12:	85 91       	lpm	r24, Z+
 a14:	93 ff       	sbrs	r25, 3
 a16:	81 91       	ld	r24, Z+
 a18:	7f 01       	movw	r14, r30
 a1a:	88 23       	and	r24, r24
 a1c:	09 f4       	brne	.+2      	; 0xa20 <vfprintf+0x3a>
 a1e:	ba c1       	rjmp	.+884    	; 0xd94 <vfprintf+0x3ae>
 a20:	85 32       	cpi	r24, 0x25	; 37
 a22:	39 f4       	brne	.+14     	; 0xa32 <vfprintf+0x4c>
 a24:	93 fd       	sbrc	r25, 3
 a26:	85 91       	lpm	r24, Z+
 a28:	93 ff       	sbrs	r25, 3
 a2a:	81 91       	ld	r24, Z+
 a2c:	7f 01       	movw	r14, r30
 a2e:	85 32       	cpi	r24, 0x25	; 37
 a30:	29 f4       	brne	.+10     	; 0xa3c <vfprintf+0x56>
 a32:	b6 01       	movw	r22, r12
 a34:	90 e0       	ldi	r25, 0x00	; 0
 a36:	0e 94 ea 06 	call	0xdd4	; 0xdd4 <fputc>
 a3a:	e7 cf       	rjmp	.-50     	; 0xa0a <vfprintf+0x24>
 a3c:	91 2c       	mov	r9, r1
 a3e:	21 2c       	mov	r2, r1
 a40:	31 2c       	mov	r3, r1
 a42:	ff e1       	ldi	r31, 0x1F	; 31
 a44:	f3 15       	cp	r31, r3
 a46:	d8 f0       	brcs	.+54     	; 0xa7e <vfprintf+0x98>
 a48:	8b 32       	cpi	r24, 0x2B	; 43
 a4a:	79 f0       	breq	.+30     	; 0xa6a <vfprintf+0x84>
 a4c:	38 f4       	brcc	.+14     	; 0xa5c <vfprintf+0x76>
 a4e:	80 32       	cpi	r24, 0x20	; 32
 a50:	79 f0       	breq	.+30     	; 0xa70 <vfprintf+0x8a>
 a52:	83 32       	cpi	r24, 0x23	; 35
 a54:	a1 f4       	brne	.+40     	; 0xa7e <vfprintf+0x98>
 a56:	23 2d       	mov	r18, r3
 a58:	20 61       	ori	r18, 0x10	; 16
 a5a:	1d c0       	rjmp	.+58     	; 0xa96 <vfprintf+0xb0>
 a5c:	8d 32       	cpi	r24, 0x2D	; 45
 a5e:	61 f0       	breq	.+24     	; 0xa78 <vfprintf+0x92>
 a60:	80 33       	cpi	r24, 0x30	; 48
 a62:	69 f4       	brne	.+26     	; 0xa7e <vfprintf+0x98>
 a64:	23 2d       	mov	r18, r3
 a66:	21 60       	ori	r18, 0x01	; 1
 a68:	16 c0       	rjmp	.+44     	; 0xa96 <vfprintf+0xb0>
 a6a:	83 2d       	mov	r24, r3
 a6c:	82 60       	ori	r24, 0x02	; 2
 a6e:	38 2e       	mov	r3, r24
 a70:	e3 2d       	mov	r30, r3
 a72:	e4 60       	ori	r30, 0x04	; 4
 a74:	3e 2e       	mov	r3, r30
 a76:	2a c0       	rjmp	.+84     	; 0xacc <vfprintf+0xe6>
 a78:	f3 2d       	mov	r31, r3
 a7a:	f8 60       	ori	r31, 0x08	; 8
 a7c:	1d c0       	rjmp	.+58     	; 0xab8 <vfprintf+0xd2>
 a7e:	37 fc       	sbrc	r3, 7
 a80:	2d c0       	rjmp	.+90     	; 0xadc <vfprintf+0xf6>
 a82:	20 ed       	ldi	r18, 0xD0	; 208
 a84:	28 0f       	add	r18, r24
 a86:	2a 30       	cpi	r18, 0x0A	; 10
 a88:	40 f0       	brcs	.+16     	; 0xa9a <vfprintf+0xb4>
 a8a:	8e 32       	cpi	r24, 0x2E	; 46
 a8c:	b9 f4       	brne	.+46     	; 0xabc <vfprintf+0xd6>
 a8e:	36 fc       	sbrc	r3, 6
 a90:	81 c1       	rjmp	.+770    	; 0xd94 <vfprintf+0x3ae>
 a92:	23 2d       	mov	r18, r3
 a94:	20 64       	ori	r18, 0x40	; 64
 a96:	32 2e       	mov	r3, r18
 a98:	19 c0       	rjmp	.+50     	; 0xacc <vfprintf+0xe6>
 a9a:	36 fe       	sbrs	r3, 6
 a9c:	06 c0       	rjmp	.+12     	; 0xaaa <vfprintf+0xc4>
 a9e:	8a e0       	ldi	r24, 0x0A	; 10
 aa0:	98 9e       	mul	r9, r24
 aa2:	20 0d       	add	r18, r0
 aa4:	11 24       	eor	r1, r1
 aa6:	92 2e       	mov	r9, r18
 aa8:	11 c0       	rjmp	.+34     	; 0xacc <vfprintf+0xe6>
 aaa:	ea e0       	ldi	r30, 0x0A	; 10
 aac:	2e 9e       	mul	r2, r30
 aae:	20 0d       	add	r18, r0
 ab0:	11 24       	eor	r1, r1
 ab2:	22 2e       	mov	r2, r18
 ab4:	f3 2d       	mov	r31, r3
 ab6:	f0 62       	ori	r31, 0x20	; 32
 ab8:	3f 2e       	mov	r3, r31
 aba:	08 c0       	rjmp	.+16     	; 0xacc <vfprintf+0xe6>
 abc:	8c 36       	cpi	r24, 0x6C	; 108
 abe:	21 f4       	brne	.+8      	; 0xac8 <vfprintf+0xe2>
 ac0:	83 2d       	mov	r24, r3
 ac2:	80 68       	ori	r24, 0x80	; 128
 ac4:	38 2e       	mov	r3, r24
 ac6:	02 c0       	rjmp	.+4      	; 0xacc <vfprintf+0xe6>
 ac8:	88 36       	cpi	r24, 0x68	; 104
 aca:	41 f4       	brne	.+16     	; 0xadc <vfprintf+0xf6>
 acc:	f7 01       	movw	r30, r14
 ace:	93 fd       	sbrc	r25, 3
 ad0:	85 91       	lpm	r24, Z+
 ad2:	93 ff       	sbrs	r25, 3
 ad4:	81 91       	ld	r24, Z+
 ad6:	7f 01       	movw	r14, r30
 ad8:	81 11       	cpse	r24, r1
 ada:	b3 cf       	rjmp	.-154    	; 0xa42 <vfprintf+0x5c>
 adc:	98 2f       	mov	r25, r24
 ade:	9f 7d       	andi	r25, 0xDF	; 223
 ae0:	95 54       	subi	r25, 0x45	; 69
 ae2:	93 30       	cpi	r25, 0x03	; 3
 ae4:	28 f4       	brcc	.+10     	; 0xaf0 <vfprintf+0x10a>
 ae6:	0c 5f       	subi	r16, 0xFC	; 252
 ae8:	1f 4f       	sbci	r17, 0xFF	; 255
 aea:	9f e3       	ldi	r25, 0x3F	; 63
 aec:	99 83       	std	Y+1, r25	; 0x01
 aee:	0d c0       	rjmp	.+26     	; 0xb0a <vfprintf+0x124>
 af0:	83 36       	cpi	r24, 0x63	; 99
 af2:	31 f0       	breq	.+12     	; 0xb00 <vfprintf+0x11a>
 af4:	83 37       	cpi	r24, 0x73	; 115
 af6:	71 f0       	breq	.+28     	; 0xb14 <vfprintf+0x12e>
 af8:	83 35       	cpi	r24, 0x53	; 83
 afa:	09 f0       	breq	.+2      	; 0xafe <vfprintf+0x118>
 afc:	59 c0       	rjmp	.+178    	; 0xbb0 <vfprintf+0x1ca>
 afe:	21 c0       	rjmp	.+66     	; 0xb42 <vfprintf+0x15c>
 b00:	f8 01       	movw	r30, r16
 b02:	80 81       	ld	r24, Z
 b04:	89 83       	std	Y+1, r24	; 0x01
 b06:	0e 5f       	subi	r16, 0xFE	; 254
 b08:	1f 4f       	sbci	r17, 0xFF	; 255
 b0a:	88 24       	eor	r8, r8
 b0c:	83 94       	inc	r8
 b0e:	91 2c       	mov	r9, r1
 b10:	53 01       	movw	r10, r6
 b12:	13 c0       	rjmp	.+38     	; 0xb3a <vfprintf+0x154>
 b14:	28 01       	movw	r4, r16
 b16:	f2 e0       	ldi	r31, 0x02	; 2
 b18:	4f 0e       	add	r4, r31
 b1a:	51 1c       	adc	r5, r1
 b1c:	f8 01       	movw	r30, r16
 b1e:	a0 80       	ld	r10, Z
 b20:	b1 80       	ldd	r11, Z+1	; 0x01
 b22:	36 fe       	sbrs	r3, 6
 b24:	03 c0       	rjmp	.+6      	; 0xb2c <vfprintf+0x146>
 b26:	69 2d       	mov	r22, r9
 b28:	70 e0       	ldi	r23, 0x00	; 0
 b2a:	02 c0       	rjmp	.+4      	; 0xb30 <vfprintf+0x14a>
 b2c:	6f ef       	ldi	r22, 0xFF	; 255
 b2e:	7f ef       	ldi	r23, 0xFF	; 255
 b30:	c5 01       	movw	r24, r10
 b32:	0e 94 df 06 	call	0xdbe	; 0xdbe <strnlen>
 b36:	4c 01       	movw	r8, r24
 b38:	82 01       	movw	r16, r4
 b3a:	f3 2d       	mov	r31, r3
 b3c:	ff 77       	andi	r31, 0x7F	; 127
 b3e:	3f 2e       	mov	r3, r31
 b40:	16 c0       	rjmp	.+44     	; 0xb6e <vfprintf+0x188>
 b42:	28 01       	movw	r4, r16
 b44:	22 e0       	ldi	r18, 0x02	; 2
 b46:	42 0e       	add	r4, r18
 b48:	51 1c       	adc	r5, r1
 b4a:	f8 01       	movw	r30, r16
 b4c:	a0 80       	ld	r10, Z
 b4e:	b1 80       	ldd	r11, Z+1	; 0x01
 b50:	36 fe       	sbrs	r3, 6
 b52:	03 c0       	rjmp	.+6      	; 0xb5a <vfprintf+0x174>
 b54:	69 2d       	mov	r22, r9
 b56:	70 e0       	ldi	r23, 0x00	; 0
 b58:	02 c0       	rjmp	.+4      	; 0xb5e <vfprintf+0x178>
 b5a:	6f ef       	ldi	r22, 0xFF	; 255
 b5c:	7f ef       	ldi	r23, 0xFF	; 255
 b5e:	c5 01       	movw	r24, r10
 b60:	0e 94 d4 06 	call	0xda8	; 0xda8 <strnlen_P>
 b64:	4c 01       	movw	r8, r24
 b66:	f3 2d       	mov	r31, r3
 b68:	f0 68       	ori	r31, 0x80	; 128
 b6a:	3f 2e       	mov	r3, r31
 b6c:	82 01       	movw	r16, r4
 b6e:	33 fc       	sbrc	r3, 3
 b70:	1b c0       	rjmp	.+54     	; 0xba8 <vfprintf+0x1c2>
 b72:	82 2d       	mov	r24, r2
 b74:	90 e0       	ldi	r25, 0x00	; 0
 b76:	88 16       	cp	r8, r24
 b78:	99 06       	cpc	r9, r25
 b7a:	b0 f4       	brcc	.+44     	; 0xba8 <vfprintf+0x1c2>
 b7c:	b6 01       	movw	r22, r12
 b7e:	80 e2       	ldi	r24, 0x20	; 32
 b80:	90 e0       	ldi	r25, 0x00	; 0
 b82:	0e 94 ea 06 	call	0xdd4	; 0xdd4 <fputc>
 b86:	2a 94       	dec	r2
 b88:	f4 cf       	rjmp	.-24     	; 0xb72 <vfprintf+0x18c>
 b8a:	f5 01       	movw	r30, r10
 b8c:	37 fc       	sbrc	r3, 7
 b8e:	85 91       	lpm	r24, Z+
 b90:	37 fe       	sbrs	r3, 7
 b92:	81 91       	ld	r24, Z+
 b94:	5f 01       	movw	r10, r30
 b96:	b6 01       	movw	r22, r12
 b98:	90 e0       	ldi	r25, 0x00	; 0
 b9a:	0e 94 ea 06 	call	0xdd4	; 0xdd4 <fputc>
 b9e:	21 10       	cpse	r2, r1
 ba0:	2a 94       	dec	r2
 ba2:	21 e0       	ldi	r18, 0x01	; 1
 ba4:	82 1a       	sub	r8, r18
 ba6:	91 08       	sbc	r9, r1
 ba8:	81 14       	cp	r8, r1
 baa:	91 04       	cpc	r9, r1
 bac:	71 f7       	brne	.-36     	; 0xb8a <vfprintf+0x1a4>
 bae:	e8 c0       	rjmp	.+464    	; 0xd80 <vfprintf+0x39a>
 bb0:	84 36       	cpi	r24, 0x64	; 100
 bb2:	11 f0       	breq	.+4      	; 0xbb8 <vfprintf+0x1d2>
 bb4:	89 36       	cpi	r24, 0x69	; 105
 bb6:	41 f5       	brne	.+80     	; 0xc08 <vfprintf+0x222>
 bb8:	f8 01       	movw	r30, r16
 bba:	37 fe       	sbrs	r3, 7
 bbc:	07 c0       	rjmp	.+14     	; 0xbcc <vfprintf+0x1e6>
 bbe:	60 81       	ld	r22, Z
 bc0:	71 81       	ldd	r23, Z+1	; 0x01
 bc2:	82 81       	ldd	r24, Z+2	; 0x02
 bc4:	93 81       	ldd	r25, Z+3	; 0x03
 bc6:	0c 5f       	subi	r16, 0xFC	; 252
 bc8:	1f 4f       	sbci	r17, 0xFF	; 255
 bca:	08 c0       	rjmp	.+16     	; 0xbdc <vfprintf+0x1f6>
 bcc:	60 81       	ld	r22, Z
 bce:	71 81       	ldd	r23, Z+1	; 0x01
 bd0:	07 2e       	mov	r0, r23
 bd2:	00 0c       	add	r0, r0
 bd4:	88 0b       	sbc	r24, r24
 bd6:	99 0b       	sbc	r25, r25
 bd8:	0e 5f       	subi	r16, 0xFE	; 254
 bda:	1f 4f       	sbci	r17, 0xFF	; 255
 bdc:	f3 2d       	mov	r31, r3
 bde:	ff 76       	andi	r31, 0x6F	; 111
 be0:	3f 2e       	mov	r3, r31
 be2:	97 ff       	sbrs	r25, 7
 be4:	09 c0       	rjmp	.+18     	; 0xbf8 <vfprintf+0x212>
 be6:	90 95       	com	r25
 be8:	80 95       	com	r24
 bea:	70 95       	com	r23
 bec:	61 95       	neg	r22
 bee:	7f 4f       	sbci	r23, 0xFF	; 255
 bf0:	8f 4f       	sbci	r24, 0xFF	; 255
 bf2:	9f 4f       	sbci	r25, 0xFF	; 255
 bf4:	f0 68       	ori	r31, 0x80	; 128
 bf6:	3f 2e       	mov	r3, r31
 bf8:	2a e0       	ldi	r18, 0x0A	; 10
 bfa:	30 e0       	ldi	r19, 0x00	; 0
 bfc:	a3 01       	movw	r20, r6
 bfe:	0e 94 26 07 	call	0xe4c	; 0xe4c <__ultoa_invert>
 c02:	88 2e       	mov	r8, r24
 c04:	86 18       	sub	r8, r6
 c06:	45 c0       	rjmp	.+138    	; 0xc92 <vfprintf+0x2ac>
 c08:	85 37       	cpi	r24, 0x75	; 117
 c0a:	31 f4       	brne	.+12     	; 0xc18 <vfprintf+0x232>
 c0c:	23 2d       	mov	r18, r3
 c0e:	2f 7e       	andi	r18, 0xEF	; 239
 c10:	b2 2e       	mov	r11, r18
 c12:	2a e0       	ldi	r18, 0x0A	; 10
 c14:	30 e0       	ldi	r19, 0x00	; 0
 c16:	25 c0       	rjmp	.+74     	; 0xc62 <vfprintf+0x27c>
 c18:	93 2d       	mov	r25, r3
 c1a:	99 7f       	andi	r25, 0xF9	; 249
 c1c:	b9 2e       	mov	r11, r25
 c1e:	8f 36       	cpi	r24, 0x6F	; 111
 c20:	c1 f0       	breq	.+48     	; 0xc52 <vfprintf+0x26c>
 c22:	18 f4       	brcc	.+6      	; 0xc2a <vfprintf+0x244>
 c24:	88 35       	cpi	r24, 0x58	; 88
 c26:	79 f0       	breq	.+30     	; 0xc46 <vfprintf+0x260>
 c28:	b5 c0       	rjmp	.+362    	; 0xd94 <vfprintf+0x3ae>
 c2a:	80 37       	cpi	r24, 0x70	; 112
 c2c:	19 f0       	breq	.+6      	; 0xc34 <vfprintf+0x24e>
 c2e:	88 37       	cpi	r24, 0x78	; 120
 c30:	21 f0       	breq	.+8      	; 0xc3a <vfprintf+0x254>
 c32:	b0 c0       	rjmp	.+352    	; 0xd94 <vfprintf+0x3ae>
 c34:	e9 2f       	mov	r30, r25
 c36:	e0 61       	ori	r30, 0x10	; 16
 c38:	be 2e       	mov	r11, r30
 c3a:	b4 fe       	sbrs	r11, 4
 c3c:	0d c0       	rjmp	.+26     	; 0xc58 <vfprintf+0x272>
 c3e:	fb 2d       	mov	r31, r11
 c40:	f4 60       	ori	r31, 0x04	; 4
 c42:	bf 2e       	mov	r11, r31
 c44:	09 c0       	rjmp	.+18     	; 0xc58 <vfprintf+0x272>
 c46:	34 fe       	sbrs	r3, 4
 c48:	0a c0       	rjmp	.+20     	; 0xc5e <vfprintf+0x278>
 c4a:	29 2f       	mov	r18, r25
 c4c:	26 60       	ori	r18, 0x06	; 6
 c4e:	b2 2e       	mov	r11, r18
 c50:	06 c0       	rjmp	.+12     	; 0xc5e <vfprintf+0x278>
 c52:	28 e0       	ldi	r18, 0x08	; 8
 c54:	30 e0       	ldi	r19, 0x00	; 0
 c56:	05 c0       	rjmp	.+10     	; 0xc62 <vfprintf+0x27c>
 c58:	20 e1       	ldi	r18, 0x10	; 16
 c5a:	30 e0       	ldi	r19, 0x00	; 0
 c5c:	02 c0       	rjmp	.+4      	; 0xc62 <vfprintf+0x27c>
 c5e:	20 e1       	ldi	r18, 0x10	; 16
 c60:	32 e0       	ldi	r19, 0x02	; 2
 c62:	f8 01       	movw	r30, r16
 c64:	b7 fe       	sbrs	r11, 7
 c66:	07 c0       	rjmp	.+14     	; 0xc76 <vfprintf+0x290>
 c68:	60 81       	ld	r22, Z
 c6a:	71 81       	ldd	r23, Z+1	; 0x01
 c6c:	82 81       	ldd	r24, Z+2	; 0x02
 c6e:	93 81       	ldd	r25, Z+3	; 0x03
 c70:	0c 5f       	subi	r16, 0xFC	; 252
 c72:	1f 4f       	sbci	r17, 0xFF	; 255
 c74:	06 c0       	rjmp	.+12     	; 0xc82 <vfprintf+0x29c>
 c76:	60 81       	ld	r22, Z
 c78:	71 81       	ldd	r23, Z+1	; 0x01
 c7a:	80 e0       	ldi	r24, 0x00	; 0
 c7c:	90 e0       	ldi	r25, 0x00	; 0
 c7e:	0e 5f       	subi	r16, 0xFE	; 254
 c80:	1f 4f       	sbci	r17, 0xFF	; 255
 c82:	a3 01       	movw	r20, r6
 c84:	0e 94 26 07 	call	0xe4c	; 0xe4c <__ultoa_invert>
 c88:	88 2e       	mov	r8, r24
 c8a:	86 18       	sub	r8, r6
 c8c:	fb 2d       	mov	r31, r11
 c8e:	ff 77       	andi	r31, 0x7F	; 127
 c90:	3f 2e       	mov	r3, r31
 c92:	36 fe       	sbrs	r3, 6
 c94:	0d c0       	rjmp	.+26     	; 0xcb0 <vfprintf+0x2ca>
 c96:	23 2d       	mov	r18, r3
 c98:	2e 7f       	andi	r18, 0xFE	; 254
 c9a:	a2 2e       	mov	r10, r18
 c9c:	89 14       	cp	r8, r9
 c9e:	58 f4       	brcc	.+22     	; 0xcb6 <vfprintf+0x2d0>
 ca0:	34 fe       	sbrs	r3, 4
 ca2:	0b c0       	rjmp	.+22     	; 0xcba <vfprintf+0x2d4>
 ca4:	32 fc       	sbrc	r3, 2
 ca6:	09 c0       	rjmp	.+18     	; 0xcba <vfprintf+0x2d4>
 ca8:	83 2d       	mov	r24, r3
 caa:	8e 7e       	andi	r24, 0xEE	; 238
 cac:	a8 2e       	mov	r10, r24
 cae:	05 c0       	rjmp	.+10     	; 0xcba <vfprintf+0x2d4>
 cb0:	b8 2c       	mov	r11, r8
 cb2:	a3 2c       	mov	r10, r3
 cb4:	03 c0       	rjmp	.+6      	; 0xcbc <vfprintf+0x2d6>
 cb6:	b8 2c       	mov	r11, r8
 cb8:	01 c0       	rjmp	.+2      	; 0xcbc <vfprintf+0x2d6>
 cba:	b9 2c       	mov	r11, r9
 cbc:	a4 fe       	sbrs	r10, 4
 cbe:	0f c0       	rjmp	.+30     	; 0xcde <vfprintf+0x2f8>
 cc0:	fe 01       	movw	r30, r28
 cc2:	e8 0d       	add	r30, r8
 cc4:	f1 1d       	adc	r31, r1
 cc6:	80 81       	ld	r24, Z
 cc8:	80 33       	cpi	r24, 0x30	; 48
 cca:	21 f4       	brne	.+8      	; 0xcd4 <vfprintf+0x2ee>
 ccc:	9a 2d       	mov	r25, r10
 cce:	99 7e       	andi	r25, 0xE9	; 233
 cd0:	a9 2e       	mov	r10, r25
 cd2:	09 c0       	rjmp	.+18     	; 0xce6 <vfprintf+0x300>
 cd4:	a2 fe       	sbrs	r10, 2
 cd6:	06 c0       	rjmp	.+12     	; 0xce4 <vfprintf+0x2fe>
 cd8:	b3 94       	inc	r11
 cda:	b3 94       	inc	r11
 cdc:	04 c0       	rjmp	.+8      	; 0xce6 <vfprintf+0x300>
 cde:	8a 2d       	mov	r24, r10
 ce0:	86 78       	andi	r24, 0x86	; 134
 ce2:	09 f0       	breq	.+2      	; 0xce6 <vfprintf+0x300>
 ce4:	b3 94       	inc	r11
 ce6:	a3 fc       	sbrc	r10, 3
 ce8:	11 c0       	rjmp	.+34     	; 0xd0c <vfprintf+0x326>
 cea:	a0 fe       	sbrs	r10, 0
 cec:	06 c0       	rjmp	.+12     	; 0xcfa <vfprintf+0x314>
 cee:	b2 14       	cp	r11, r2
 cf0:	88 f4       	brcc	.+34     	; 0xd14 <vfprintf+0x32e>
 cf2:	28 0c       	add	r2, r8
 cf4:	92 2c       	mov	r9, r2
 cf6:	9b 18       	sub	r9, r11
 cf8:	0e c0       	rjmp	.+28     	; 0xd16 <vfprintf+0x330>
 cfa:	b2 14       	cp	r11, r2
 cfc:	60 f4       	brcc	.+24     	; 0xd16 <vfprintf+0x330>
 cfe:	b6 01       	movw	r22, r12
 d00:	80 e2       	ldi	r24, 0x20	; 32
 d02:	90 e0       	ldi	r25, 0x00	; 0
 d04:	0e 94 ea 06 	call	0xdd4	; 0xdd4 <fputc>
 d08:	b3 94       	inc	r11
 d0a:	f7 cf       	rjmp	.-18     	; 0xcfa <vfprintf+0x314>
 d0c:	b2 14       	cp	r11, r2
 d0e:	18 f4       	brcc	.+6      	; 0xd16 <vfprintf+0x330>
 d10:	2b 18       	sub	r2, r11
 d12:	02 c0       	rjmp	.+4      	; 0xd18 <vfprintf+0x332>
 d14:	98 2c       	mov	r9, r8
 d16:	21 2c       	mov	r2, r1
 d18:	a4 fe       	sbrs	r10, 4
 d1a:	10 c0       	rjmp	.+32     	; 0xd3c <vfprintf+0x356>
 d1c:	b6 01       	movw	r22, r12
 d1e:	80 e3       	ldi	r24, 0x30	; 48
 d20:	90 e0       	ldi	r25, 0x00	; 0
 d22:	0e 94 ea 06 	call	0xdd4	; 0xdd4 <fputc>
 d26:	a2 fe       	sbrs	r10, 2
 d28:	17 c0       	rjmp	.+46     	; 0xd58 <vfprintf+0x372>
 d2a:	a1 fc       	sbrc	r10, 1
 d2c:	03 c0       	rjmp	.+6      	; 0xd34 <vfprintf+0x34e>
 d2e:	88 e7       	ldi	r24, 0x78	; 120
 d30:	90 e0       	ldi	r25, 0x00	; 0
 d32:	02 c0       	rjmp	.+4      	; 0xd38 <vfprintf+0x352>
 d34:	88 e5       	ldi	r24, 0x58	; 88
 d36:	90 e0       	ldi	r25, 0x00	; 0
 d38:	b6 01       	movw	r22, r12
 d3a:	0c c0       	rjmp	.+24     	; 0xd54 <vfprintf+0x36e>
 d3c:	8a 2d       	mov	r24, r10
 d3e:	86 78       	andi	r24, 0x86	; 134
 d40:	59 f0       	breq	.+22     	; 0xd58 <vfprintf+0x372>
 d42:	a1 fe       	sbrs	r10, 1
 d44:	02 c0       	rjmp	.+4      	; 0xd4a <vfprintf+0x364>
 d46:	8b e2       	ldi	r24, 0x2B	; 43
 d48:	01 c0       	rjmp	.+2      	; 0xd4c <vfprintf+0x366>
 d4a:	80 e2       	ldi	r24, 0x20	; 32
 d4c:	a7 fc       	sbrc	r10, 7
 d4e:	8d e2       	ldi	r24, 0x2D	; 45
 d50:	b6 01       	movw	r22, r12
 d52:	90 e0       	ldi	r25, 0x00	; 0
 d54:	0e 94 ea 06 	call	0xdd4	; 0xdd4 <fputc>
 d58:	89 14       	cp	r8, r9
 d5a:	38 f4       	brcc	.+14     	; 0xd6a <vfprintf+0x384>
 d5c:	b6 01       	movw	r22, r12
 d5e:	80 e3       	ldi	r24, 0x30	; 48
 d60:	90 e0       	ldi	r25, 0x00	; 0
 d62:	0e 94 ea 06 	call	0xdd4	; 0xdd4 <fputc>
 d66:	9a 94       	dec	r9
 d68:	f7 cf       	rjmp	.-18     	; 0xd58 <vfprintf+0x372>
 d6a:	8a 94       	dec	r8
 d6c:	f3 01       	movw	r30, r6
 d6e:	e8 0d       	add	r30, r8
 d70:	f1 1d       	adc	r31, r1
 d72:	80 81       	ld	r24, Z
 d74:	b6 01       	movw	r22, r12
 d76:	90 e0       	ldi	r25, 0x00	; 0
 d78:	0e 94 ea 06 	call	0xdd4	; 0xdd4 <fputc>
 d7c:	81 10       	cpse	r8, r1
 d7e:	f5 cf       	rjmp	.-22     	; 0xd6a <vfprintf+0x384>
 d80:	22 20       	and	r2, r2
 d82:	09 f4       	brne	.+2      	; 0xd86 <vfprintf+0x3a0>
 d84:	42 ce       	rjmp	.-892    	; 0xa0a <vfprintf+0x24>
 d86:	b6 01       	movw	r22, r12
 d88:	80 e2       	ldi	r24, 0x20	; 32
 d8a:	90 e0       	ldi	r25, 0x00	; 0
 d8c:	0e 94 ea 06 	call	0xdd4	; 0xdd4 <fputc>
 d90:	2a 94       	dec	r2
 d92:	f6 cf       	rjmp	.-20     	; 0xd80 <vfprintf+0x39a>
 d94:	f6 01       	movw	r30, r12
 d96:	86 81       	ldd	r24, Z+6	; 0x06
 d98:	97 81       	ldd	r25, Z+7	; 0x07
 d9a:	02 c0       	rjmp	.+4      	; 0xda0 <vfprintf+0x3ba>
 d9c:	8f ef       	ldi	r24, 0xFF	; 255
 d9e:	9f ef       	ldi	r25, 0xFF	; 255
 da0:	2b 96       	adiw	r28, 0x0b	; 11
 da2:	e2 e1       	ldi	r30, 0x12	; 18
 da4:	0c 94 a0 07 	jmp	0xf40	; 0xf40 <__epilogue_restores__>

00000da8 <strnlen_P>:
 da8:	fc 01       	movw	r30, r24
 daa:	05 90       	lpm	r0, Z+
 dac:	61 50       	subi	r22, 0x01	; 1
 dae:	70 40       	sbci	r23, 0x00	; 0
 db0:	01 10       	cpse	r0, r1
 db2:	d8 f7       	brcc	.-10     	; 0xdaa <strnlen_P+0x2>
 db4:	80 95       	com	r24
 db6:	90 95       	com	r25
 db8:	8e 0f       	add	r24, r30
 dba:	9f 1f       	adc	r25, r31
 dbc:	08 95       	ret

00000dbe <strnlen>:
 dbe:	fc 01       	movw	r30, r24
 dc0:	61 50       	subi	r22, 0x01	; 1
 dc2:	70 40       	sbci	r23, 0x00	; 0
 dc4:	01 90       	ld	r0, Z+
 dc6:	01 10       	cpse	r0, r1
 dc8:	d8 f7       	brcc	.-10     	; 0xdc0 <strnlen+0x2>
 dca:	80 95       	com	r24
 dcc:	90 95       	com	r25
 dce:	8e 0f       	add	r24, r30
 dd0:	9f 1f       	adc	r25, r31
 dd2:	08 95       	ret

00000dd4 <fputc>:
 dd4:	0f 93       	push	r16
 dd6:	1f 93       	push	r17
 dd8:	cf 93       	push	r28
 dda:	df 93       	push	r29
 ddc:	fb 01       	movw	r30, r22
 dde:	23 81       	ldd	r18, Z+3	; 0x03
 de0:	21 fd       	sbrc	r18, 1
 de2:	03 c0       	rjmp	.+6      	; 0xdea <fputc+0x16>
 de4:	8f ef       	ldi	r24, 0xFF	; 255
 de6:	9f ef       	ldi	r25, 0xFF	; 255
 de8:	2c c0       	rjmp	.+88     	; 0xe42 <fputc+0x6e>
 dea:	22 ff       	sbrs	r18, 2
 dec:	16 c0       	rjmp	.+44     	; 0xe1a <fputc+0x46>
 dee:	46 81       	ldd	r20, Z+6	; 0x06
 df0:	57 81       	ldd	r21, Z+7	; 0x07
 df2:	24 81       	ldd	r18, Z+4	; 0x04
 df4:	35 81       	ldd	r19, Z+5	; 0x05
 df6:	42 17       	cp	r20, r18
 df8:	53 07       	cpc	r21, r19
 dfa:	44 f4       	brge	.+16     	; 0xe0c <fputc+0x38>
 dfc:	a0 81       	ld	r26, Z
 dfe:	b1 81       	ldd	r27, Z+1	; 0x01
 e00:	9d 01       	movw	r18, r26
 e02:	2f 5f       	subi	r18, 0xFF	; 255
 e04:	3f 4f       	sbci	r19, 0xFF	; 255
 e06:	31 83       	std	Z+1, r19	; 0x01
 e08:	20 83       	st	Z, r18
 e0a:	8c 93       	st	X, r24
 e0c:	26 81       	ldd	r18, Z+6	; 0x06
 e0e:	37 81       	ldd	r19, Z+7	; 0x07
 e10:	2f 5f       	subi	r18, 0xFF	; 255
 e12:	3f 4f       	sbci	r19, 0xFF	; 255
 e14:	37 83       	std	Z+7, r19	; 0x07
 e16:	26 83       	std	Z+6, r18	; 0x06
 e18:	14 c0       	rjmp	.+40     	; 0xe42 <fputc+0x6e>
 e1a:	8b 01       	movw	r16, r22
 e1c:	ec 01       	movw	r28, r24
 e1e:	fb 01       	movw	r30, r22
 e20:	00 84       	ldd	r0, Z+8	; 0x08
 e22:	f1 85       	ldd	r31, Z+9	; 0x09
 e24:	e0 2d       	mov	r30, r0
 e26:	09 95       	icall
 e28:	89 2b       	or	r24, r25
 e2a:	e1 f6       	brne	.-72     	; 0xde4 <fputc+0x10>
 e2c:	d8 01       	movw	r26, r16
 e2e:	16 96       	adiw	r26, 0x06	; 6
 e30:	8d 91       	ld	r24, X+
 e32:	9c 91       	ld	r25, X
 e34:	17 97       	sbiw	r26, 0x07	; 7
 e36:	01 96       	adiw	r24, 0x01	; 1
 e38:	17 96       	adiw	r26, 0x07	; 7
 e3a:	9c 93       	st	X, r25
 e3c:	8e 93       	st	-X, r24
 e3e:	16 97       	sbiw	r26, 0x06	; 6
 e40:	ce 01       	movw	r24, r28
 e42:	df 91       	pop	r29
 e44:	cf 91       	pop	r28
 e46:	1f 91       	pop	r17
 e48:	0f 91       	pop	r16
 e4a:	08 95       	ret

00000e4c <__ultoa_invert>:
 e4c:	fa 01       	movw	r30, r20
 e4e:	aa 27       	eor	r26, r26
 e50:	28 30       	cpi	r18, 0x08	; 8
 e52:	51 f1       	breq	.+84     	; 0xea8 <__ultoa_invert+0x5c>
 e54:	20 31       	cpi	r18, 0x10	; 16
 e56:	81 f1       	breq	.+96     	; 0xeb8 <__ultoa_invert+0x6c>
 e58:	e8 94       	clt
 e5a:	6f 93       	push	r22
 e5c:	6e 7f       	andi	r22, 0xFE	; 254
 e5e:	6e 5f       	subi	r22, 0xFE	; 254
 e60:	7f 4f       	sbci	r23, 0xFF	; 255
 e62:	8f 4f       	sbci	r24, 0xFF	; 255
 e64:	9f 4f       	sbci	r25, 0xFF	; 255
 e66:	af 4f       	sbci	r26, 0xFF	; 255
 e68:	b1 e0       	ldi	r27, 0x01	; 1
 e6a:	3e d0       	rcall	.+124    	; 0xee8 <__ultoa_invert+0x9c>
 e6c:	b4 e0       	ldi	r27, 0x04	; 4
 e6e:	3c d0       	rcall	.+120    	; 0xee8 <__ultoa_invert+0x9c>
 e70:	67 0f       	add	r22, r23
 e72:	78 1f       	adc	r23, r24
 e74:	89 1f       	adc	r24, r25
 e76:	9a 1f       	adc	r25, r26
 e78:	a1 1d       	adc	r26, r1
 e7a:	68 0f       	add	r22, r24
 e7c:	79 1f       	adc	r23, r25
 e7e:	8a 1f       	adc	r24, r26
 e80:	91 1d       	adc	r25, r1
 e82:	a1 1d       	adc	r26, r1
 e84:	6a 0f       	add	r22, r26
 e86:	71 1d       	adc	r23, r1
 e88:	81 1d       	adc	r24, r1
 e8a:	91 1d       	adc	r25, r1
 e8c:	a1 1d       	adc	r26, r1
 e8e:	20 d0       	rcall	.+64     	; 0xed0 <__ultoa_invert+0x84>
 e90:	09 f4       	brne	.+2      	; 0xe94 <__ultoa_invert+0x48>
 e92:	68 94       	set
 e94:	3f 91       	pop	r19
 e96:	2a e0       	ldi	r18, 0x0A	; 10
 e98:	26 9f       	mul	r18, r22
 e9a:	11 24       	eor	r1, r1
 e9c:	30 19       	sub	r19, r0
 e9e:	30 5d       	subi	r19, 0xD0	; 208
 ea0:	31 93       	st	Z+, r19
 ea2:	de f6       	brtc	.-74     	; 0xe5a <__ultoa_invert+0xe>
 ea4:	cf 01       	movw	r24, r30
 ea6:	08 95       	ret
 ea8:	46 2f       	mov	r20, r22
 eaa:	47 70       	andi	r20, 0x07	; 7
 eac:	40 5d       	subi	r20, 0xD0	; 208
 eae:	41 93       	st	Z+, r20
 eb0:	b3 e0       	ldi	r27, 0x03	; 3
 eb2:	0f d0       	rcall	.+30     	; 0xed2 <__ultoa_invert+0x86>
 eb4:	c9 f7       	brne	.-14     	; 0xea8 <__ultoa_invert+0x5c>
 eb6:	f6 cf       	rjmp	.-20     	; 0xea4 <__ultoa_invert+0x58>
 eb8:	46 2f       	mov	r20, r22
 eba:	4f 70       	andi	r20, 0x0F	; 15
 ebc:	40 5d       	subi	r20, 0xD0	; 208
 ebe:	4a 33       	cpi	r20, 0x3A	; 58
 ec0:	18 f0       	brcs	.+6      	; 0xec8 <__ultoa_invert+0x7c>
 ec2:	49 5d       	subi	r20, 0xD9	; 217
 ec4:	31 fd       	sbrc	r19, 1
 ec6:	40 52       	subi	r20, 0x20	; 32
 ec8:	41 93       	st	Z+, r20
 eca:	02 d0       	rcall	.+4      	; 0xed0 <__ultoa_invert+0x84>
 ecc:	a9 f7       	brne	.-22     	; 0xeb8 <__ultoa_invert+0x6c>
 ece:	ea cf       	rjmp	.-44     	; 0xea4 <__ultoa_invert+0x58>
 ed0:	b4 e0       	ldi	r27, 0x04	; 4
 ed2:	a6 95       	lsr	r26
 ed4:	97 95       	ror	r25
 ed6:	87 95       	ror	r24
 ed8:	77 95       	ror	r23
 eda:	67 95       	ror	r22
 edc:	ba 95       	dec	r27
 ede:	c9 f7       	brne	.-14     	; 0xed2 <__ultoa_invert+0x86>
 ee0:	00 97       	sbiw	r24, 0x00	; 0
 ee2:	61 05       	cpc	r22, r1
 ee4:	71 05       	cpc	r23, r1
 ee6:	08 95       	ret
 ee8:	9b 01       	movw	r18, r22
 eea:	ac 01       	movw	r20, r24
 eec:	0a 2e       	mov	r0, r26
 eee:	06 94       	lsr	r0
 ef0:	57 95       	ror	r21
 ef2:	47 95       	ror	r20
 ef4:	37 95       	ror	r19
 ef6:	27 95       	ror	r18
 ef8:	ba 95       	dec	r27
 efa:	c9 f7       	brne	.-14     	; 0xeee <__ultoa_invert+0xa2>
 efc:	62 0f       	add	r22, r18
 efe:	73 1f       	adc	r23, r19
 f00:	84 1f       	adc	r24, r20
 f02:	95 1f       	adc	r25, r21
 f04:	a0 1d       	adc	r26, r0
 f06:	08 95       	ret

00000f08 <__prologue_saves__>:
 f08:	2f 92       	push	r2
 f0a:	3f 92       	push	r3
 f0c:	4f 92       	push	r4
 f0e:	5f 92       	push	r5
 f10:	6f 92       	push	r6
 f12:	7f 92       	push	r7
 f14:	8f 92       	push	r8
 f16:	9f 92       	push	r9
 f18:	af 92       	push	r10
 f1a:	bf 92       	push	r11
 f1c:	cf 92       	push	r12
 f1e:	df 92       	push	r13
 f20:	ef 92       	push	r14
 f22:	ff 92       	push	r15
 f24:	0f 93       	push	r16
 f26:	1f 93       	push	r17
 f28:	cf 93       	push	r28
 f2a:	df 93       	push	r29
 f2c:	cd b7       	in	r28, 0x3d	; 61
 f2e:	de b7       	in	r29, 0x3e	; 62
 f30:	ca 1b       	sub	r28, r26
 f32:	db 0b       	sbc	r29, r27
 f34:	0f b6       	in	r0, 0x3f	; 63
 f36:	f8 94       	cli
 f38:	de bf       	out	0x3e, r29	; 62
 f3a:	0f be       	out	0x3f, r0	; 63
 f3c:	cd bf       	out	0x3d, r28	; 61
 f3e:	09 94       	ijmp

00000f40 <__epilogue_restores__>:
 f40:	2a 88       	ldd	r2, Y+18	; 0x12
 f42:	39 88       	ldd	r3, Y+17	; 0x11
 f44:	48 88       	ldd	r4, Y+16	; 0x10
 f46:	5f 84       	ldd	r5, Y+15	; 0x0f
 f48:	6e 84       	ldd	r6, Y+14	; 0x0e
 f4a:	7d 84       	ldd	r7, Y+13	; 0x0d
 f4c:	8c 84       	ldd	r8, Y+12	; 0x0c
 f4e:	9b 84       	ldd	r9, Y+11	; 0x0b
 f50:	aa 84       	ldd	r10, Y+10	; 0x0a
 f52:	b9 84       	ldd	r11, Y+9	; 0x09
 f54:	c8 84       	ldd	r12, Y+8	; 0x08
 f56:	df 80       	ldd	r13, Y+7	; 0x07
 f58:	ee 80       	ldd	r14, Y+6	; 0x06
 f5a:	fd 80       	ldd	r15, Y+5	; 0x05
 f5c:	0c 81       	ldd	r16, Y+4	; 0x04
 f5e:	1b 81       	ldd	r17, Y+3	; 0x03
 f60:	aa 81       	ldd	r26, Y+2	; 0x02
 f62:	b9 81       	ldd	r27, Y+1	; 0x01
 f64:	ce 0f       	add	r28, r30
 f66:	d1 1d       	adc	r29, r1
 f68:	0f b6       	in	r0, 0x3f	; 63
 f6a:	f8 94       	cli
 f6c:	de bf       	out	0x3e, r29	; 62
 f6e:	0f be       	out	0x3f, r0	; 63
 f70:	cd bf       	out	0x3d, r28	; 61
 f72:	ed 01       	movw	r28, r26
 f74:	08 95       	ret

00000f76 <_exit>:
 f76:	f8 94       	cli

00000f78 <__stop_program>:
 f78:	ff cf       	rjmp	.-2      	; 0xf78 <__stop_program>
